
ctarget:     file format elf64-x86-64


Disassembly of section .init:

0000000000400bc8 <_init>:
  400bc8:	48 83 ec 08          	sub    $0x8,%rsp
  400bcc:	48 8b 05 25 34 20 00 	mov    0x203425(%rip),%rax        # 603ff8 <_DYNAMIC+0x1d0>
  400bd3:	48 85 c0             	test   %rax,%rax
  400bd6:	74 05                	je     400bdd <_init+0x15>
  400bd8:	e8 33 01 00 00       	callq  400d10 <__gmon_start__@plt>
  400bdd:	48 83 c4 08          	add    $0x8,%rsp
  400be1:	c3                   	retq   

Disassembly of section .plt:

0000000000400bf0 <strcasecmp@plt-0x10>:
  400bf0:	ff 35 12 34 20 00    	pushq  0x203412(%rip)        # 604008 <_GLOBAL_OFFSET_TABLE_+0x8>
  400bf6:	ff 25 14 34 20 00    	jmpq   *0x203414(%rip)        # 604010 <_GLOBAL_OFFSET_TABLE_+0x10>
  400bfc:	0f 1f 40 00          	nopl   0x0(%rax)

0000000000400c00 <strcasecmp@plt>:
  400c00:	ff 25 12 34 20 00    	jmpq   *0x203412(%rip)        # 604018 <_GLOBAL_OFFSET_TABLE_+0x18>
  400c06:	68 00 00 00 00       	pushq  $0x0
  400c0b:	e9 e0 ff ff ff       	jmpq   400bf0 <_init+0x28>

0000000000400c10 <__errno_location@plt>:
  400c10:	ff 25 0a 34 20 00    	jmpq   *0x20340a(%rip)        # 604020 <_GLOBAL_OFFSET_TABLE_+0x20>
  400c16:	68 01 00 00 00       	pushq  $0x1
  400c1b:	e9 d0 ff ff ff       	jmpq   400bf0 <_init+0x28>

0000000000400c20 <srandom@plt>:
  400c20:	ff 25 02 34 20 00    	jmpq   *0x203402(%rip)        # 604028 <_GLOBAL_OFFSET_TABLE_+0x28>
  400c26:	68 02 00 00 00       	pushq  $0x2
  400c2b:	e9 c0 ff ff ff       	jmpq   400bf0 <_init+0x28>

0000000000400c30 <strncmp@plt>:
  400c30:	ff 25 fa 33 20 00    	jmpq   *0x2033fa(%rip)        # 604030 <_GLOBAL_OFFSET_TABLE_+0x30>
  400c36:	68 03 00 00 00       	pushq  $0x3
  400c3b:	e9 b0 ff ff ff       	jmpq   400bf0 <_init+0x28>

0000000000400c40 <strcpy@plt>:
  400c40:	ff 25 f2 33 20 00    	jmpq   *0x2033f2(%rip)        # 604038 <_GLOBAL_OFFSET_TABLE_+0x38>
  400c46:	68 04 00 00 00       	pushq  $0x4
  400c4b:	e9 a0 ff ff ff       	jmpq   400bf0 <_init+0x28>

0000000000400c50 <puts@plt>:
  400c50:	ff 25 ea 33 20 00    	jmpq   *0x2033ea(%rip)        # 604040 <_GLOBAL_OFFSET_TABLE_+0x40>
  400c56:	68 05 00 00 00       	pushq  $0x5
  400c5b:	e9 90 ff ff ff       	jmpq   400bf0 <_init+0x28>

0000000000400c60 <write@plt>:
  400c60:	ff 25 e2 33 20 00    	jmpq   *0x2033e2(%rip)        # 604048 <_GLOBAL_OFFSET_TABLE_+0x48>
  400c66:	68 06 00 00 00       	pushq  $0x6
  400c6b:	e9 80 ff ff ff       	jmpq   400bf0 <_init+0x28>

0000000000400c70 <mmap@plt>:
  400c70:	ff 25 da 33 20 00    	jmpq   *0x2033da(%rip)        # 604050 <_GLOBAL_OFFSET_TABLE_+0x50>
  400c76:	68 07 00 00 00       	pushq  $0x7
  400c7b:	e9 70 ff ff ff       	jmpq   400bf0 <_init+0x28>

0000000000400c80 <printf@plt>:
  400c80:	ff 25 d2 33 20 00    	jmpq   *0x2033d2(%rip)        # 604058 <_GLOBAL_OFFSET_TABLE_+0x58>
  400c86:	68 08 00 00 00       	pushq  $0x8
  400c8b:	e9 60 ff ff ff       	jmpq   400bf0 <_init+0x28>

0000000000400c90 <memset@plt>:
  400c90:	ff 25 ca 33 20 00    	jmpq   *0x2033ca(%rip)        # 604060 <_GLOBAL_OFFSET_TABLE_+0x60>
  400c96:	68 09 00 00 00       	pushq  $0x9
  400c9b:	e9 50 ff ff ff       	jmpq   400bf0 <_init+0x28>

0000000000400ca0 <alarm@plt>:
  400ca0:	ff 25 c2 33 20 00    	jmpq   *0x2033c2(%rip)        # 604068 <_GLOBAL_OFFSET_TABLE_+0x68>
  400ca6:	68 0a 00 00 00       	pushq  $0xa
  400cab:	e9 40 ff ff ff       	jmpq   400bf0 <_init+0x28>

0000000000400cb0 <close@plt>:
  400cb0:	ff 25 ba 33 20 00    	jmpq   *0x2033ba(%rip)        # 604070 <_GLOBAL_OFFSET_TABLE_+0x70>
  400cb6:	68 0b 00 00 00       	pushq  $0xb
  400cbb:	e9 30 ff ff ff       	jmpq   400bf0 <_init+0x28>

0000000000400cc0 <read@plt>:
  400cc0:	ff 25 b2 33 20 00    	jmpq   *0x2033b2(%rip)        # 604078 <_GLOBAL_OFFSET_TABLE_+0x78>
  400cc6:	68 0c 00 00 00       	pushq  $0xc
  400ccb:	e9 20 ff ff ff       	jmpq   400bf0 <_init+0x28>

0000000000400cd0 <__libc_start_main@plt>:
  400cd0:	ff 25 aa 33 20 00    	jmpq   *0x2033aa(%rip)        # 604080 <_GLOBAL_OFFSET_TABLE_+0x80>
  400cd6:	68 0d 00 00 00       	pushq  $0xd
  400cdb:	e9 10 ff ff ff       	jmpq   400bf0 <_init+0x28>

0000000000400ce0 <signal@plt>:
  400ce0:	ff 25 a2 33 20 00    	jmpq   *0x2033a2(%rip)        # 604088 <_GLOBAL_OFFSET_TABLE_+0x88>
  400ce6:	68 0e 00 00 00       	pushq  $0xe
  400ceb:	e9 00 ff ff ff       	jmpq   400bf0 <_init+0x28>

0000000000400cf0 <gethostbyname@plt>:
  400cf0:	ff 25 9a 33 20 00    	jmpq   *0x20339a(%rip)        # 604090 <_GLOBAL_OFFSET_TABLE_+0x90>
  400cf6:	68 0f 00 00 00       	pushq  $0xf
  400cfb:	e9 f0 fe ff ff       	jmpq   400bf0 <_init+0x28>

0000000000400d00 <fprintf@plt>:
  400d00:	ff 25 92 33 20 00    	jmpq   *0x203392(%rip)        # 604098 <_GLOBAL_OFFSET_TABLE_+0x98>
  400d06:	68 10 00 00 00       	pushq  $0x10
  400d0b:	e9 e0 fe ff ff       	jmpq   400bf0 <_init+0x28>

0000000000400d10 <__gmon_start__@plt>:
  400d10:	ff 25 8a 33 20 00    	jmpq   *0x20338a(%rip)        # 6040a0 <_GLOBAL_OFFSET_TABLE_+0xa0>
  400d16:	68 11 00 00 00       	pushq  $0x11
  400d1b:	e9 d0 fe ff ff       	jmpq   400bf0 <_init+0x28>

0000000000400d20 <strtol@plt>:
  400d20:	ff 25 82 33 20 00    	jmpq   *0x203382(%rip)        # 6040a8 <_GLOBAL_OFFSET_TABLE_+0xa8>
  400d26:	68 12 00 00 00       	pushq  $0x12
  400d2b:	e9 c0 fe ff ff       	jmpq   400bf0 <_init+0x28>

0000000000400d30 <memcpy@plt>:
  400d30:	ff 25 7a 33 20 00    	jmpq   *0x20337a(%rip)        # 6040b0 <_GLOBAL_OFFSET_TABLE_+0xb0>
  400d36:	68 13 00 00 00       	pushq  $0x13
  400d3b:	e9 b0 fe ff ff       	jmpq   400bf0 <_init+0x28>

0000000000400d40 <time@plt>:
  400d40:	ff 25 72 33 20 00    	jmpq   *0x203372(%rip)        # 6040b8 <_GLOBAL_OFFSET_TABLE_+0xb8>
  400d46:	68 14 00 00 00       	pushq  $0x14
  400d4b:	e9 a0 fe ff ff       	jmpq   400bf0 <_init+0x28>

0000000000400d50 <random@plt>:
  400d50:	ff 25 6a 33 20 00    	jmpq   *0x20336a(%rip)        # 6040c0 <_GLOBAL_OFFSET_TABLE_+0xc0>
  400d56:	68 15 00 00 00       	pushq  $0x15
  400d5b:	e9 90 fe ff ff       	jmpq   400bf0 <_init+0x28>

0000000000400d60 <_IO_getc@plt>:
  400d60:	ff 25 62 33 20 00    	jmpq   *0x203362(%rip)        # 6040c8 <_GLOBAL_OFFSET_TABLE_+0xc8>
  400d66:	68 16 00 00 00       	pushq  $0x16
  400d6b:	e9 80 fe ff ff       	jmpq   400bf0 <_init+0x28>

0000000000400d70 <__isoc99_sscanf@plt>:
  400d70:	ff 25 5a 33 20 00    	jmpq   *0x20335a(%rip)        # 6040d0 <_GLOBAL_OFFSET_TABLE_+0xd0>
  400d76:	68 17 00 00 00       	pushq  $0x17
  400d7b:	e9 70 fe ff ff       	jmpq   400bf0 <_init+0x28>

0000000000400d80 <munmap@plt>:
  400d80:	ff 25 52 33 20 00    	jmpq   *0x203352(%rip)        # 6040d8 <_GLOBAL_OFFSET_TABLE_+0xd8>
  400d86:	68 18 00 00 00       	pushq  $0x18
  400d8b:	e9 60 fe ff ff       	jmpq   400bf0 <_init+0x28>

0000000000400d90 <bcopy@plt>:
  400d90:	ff 25 4a 33 20 00    	jmpq   *0x20334a(%rip)        # 6040e0 <_GLOBAL_OFFSET_TABLE_+0xe0>
  400d96:	68 19 00 00 00       	pushq  $0x19
  400d9b:	e9 50 fe ff ff       	jmpq   400bf0 <_init+0x28>

0000000000400da0 <fopen@plt>:
  400da0:	ff 25 42 33 20 00    	jmpq   *0x203342(%rip)        # 6040e8 <_GLOBAL_OFFSET_TABLE_+0xe8>
  400da6:	68 1a 00 00 00       	pushq  $0x1a
  400dab:	e9 40 fe ff ff       	jmpq   400bf0 <_init+0x28>

0000000000400db0 <getopt@plt>:
  400db0:	ff 25 3a 33 20 00    	jmpq   *0x20333a(%rip)        # 6040f0 <_GLOBAL_OFFSET_TABLE_+0xf0>
  400db6:	68 1b 00 00 00       	pushq  $0x1b
  400dbb:	e9 30 fe ff ff       	jmpq   400bf0 <_init+0x28>

0000000000400dc0 <strtoul@plt>:
  400dc0:	ff 25 32 33 20 00    	jmpq   *0x203332(%rip)        # 6040f8 <_GLOBAL_OFFSET_TABLE_+0xf8>
  400dc6:	68 1c 00 00 00       	pushq  $0x1c
  400dcb:	e9 20 fe ff ff       	jmpq   400bf0 <_init+0x28>

0000000000400dd0 <gethostname@plt>:
  400dd0:	ff 25 2a 33 20 00    	jmpq   *0x20332a(%rip)        # 604100 <_GLOBAL_OFFSET_TABLE_+0x100>
  400dd6:	68 1d 00 00 00       	pushq  $0x1d
  400ddb:	e9 10 fe ff ff       	jmpq   400bf0 <_init+0x28>

0000000000400de0 <sprintf@plt>:
  400de0:	ff 25 22 33 20 00    	jmpq   *0x203322(%rip)        # 604108 <_GLOBAL_OFFSET_TABLE_+0x108>
  400de6:	68 1e 00 00 00       	pushq  $0x1e
  400deb:	e9 00 fe ff ff       	jmpq   400bf0 <_init+0x28>

0000000000400df0 <exit@plt>:
  400df0:	ff 25 1a 33 20 00    	jmpq   *0x20331a(%rip)        # 604110 <_GLOBAL_OFFSET_TABLE_+0x110>
  400df6:	68 1f 00 00 00       	pushq  $0x1f
  400dfb:	e9 f0 fd ff ff       	jmpq   400bf0 <_init+0x28>

0000000000400e00 <connect@plt>:
  400e00:	ff 25 12 33 20 00    	jmpq   *0x203312(%rip)        # 604118 <_GLOBAL_OFFSET_TABLE_+0x118>
  400e06:	68 20 00 00 00       	pushq  $0x20
  400e0b:	e9 e0 fd ff ff       	jmpq   400bf0 <_init+0x28>

0000000000400e10 <socket@plt>:
  400e10:	ff 25 0a 33 20 00    	jmpq   *0x20330a(%rip)        # 604120 <_GLOBAL_OFFSET_TABLE_+0x120>
  400e16:	68 21 00 00 00       	pushq  $0x21
  400e1b:	e9 d0 fd ff ff       	jmpq   400bf0 <_init+0x28>

Disassembly of section .text:

0000000000400e20 <_start>:
  400e20:	31 ed                	xor    %ebp,%ebp
  400e22:	49 89 d1             	mov    %rdx,%r9
  400e25:	5e                   	pop    %rsi
  400e26:	48 89 e2             	mov    %rsp,%rdx
  400e29:	48 83 e4 f0          	and    $0xfffffffffffffff0,%rsp
  400e2d:	50                   	push   %rax
  400e2e:	54                   	push   %rsp
  400e2f:	49 c7 c0 00 2b 40 00 	mov    $0x402b00,%r8
  400e36:	48 c7 c1 90 2a 40 00 	mov    $0x402a90,%rcx
  400e3d:	48 c7 c7 e0 10 40 00 	mov    $0x4010e0,%rdi
  400e44:	e8 87 fe ff ff       	callq  400cd0 <__libc_start_main@plt>
  400e49:	f4                   	hlt    
  400e4a:	66 0f 1f 44 00 00    	nopw   0x0(%rax,%rax,1)

0000000000400e50 <deregister_tm_clones>:
  400e50:	b8 b7 44 60 00       	mov    $0x6044b7,%eax
  400e55:	55                   	push   %rbp
  400e56:	48 2d b0 44 60 00    	sub    $0x6044b0,%rax
  400e5c:	48 83 f8 0e          	cmp    $0xe,%rax
  400e60:	48 89 e5             	mov    %rsp,%rbp
  400e63:	77 02                	ja     400e67 <deregister_tm_clones+0x17>
  400e65:	5d                   	pop    %rbp
  400e66:	c3                   	retq   
  400e67:	b8 00 00 00 00       	mov    $0x0,%eax
  400e6c:	48 85 c0             	test   %rax,%rax
  400e6f:	74 f4                	je     400e65 <deregister_tm_clones+0x15>
  400e71:	5d                   	pop    %rbp
  400e72:	bf b0 44 60 00       	mov    $0x6044b0,%edi
  400e77:	ff e0                	jmpq   *%rax
  400e79:	0f 1f 80 00 00 00 00 	nopl   0x0(%rax)

0000000000400e80 <register_tm_clones>:
  400e80:	b8 b0 44 60 00       	mov    $0x6044b0,%eax
  400e85:	55                   	push   %rbp
  400e86:	48 2d b0 44 60 00    	sub    $0x6044b0,%rax
  400e8c:	48 c1 f8 03          	sar    $0x3,%rax
  400e90:	48 89 e5             	mov    %rsp,%rbp
  400e93:	48 89 c2             	mov    %rax,%rdx
  400e96:	48 c1 ea 3f          	shr    $0x3f,%rdx
  400e9a:	48 01 d0             	add    %rdx,%rax
  400e9d:	48 d1 f8             	sar    %rax
  400ea0:	75 02                	jne    400ea4 <register_tm_clones+0x24>
  400ea2:	5d                   	pop    %rbp
  400ea3:	c3                   	retq   
  400ea4:	ba 00 00 00 00       	mov    $0x0,%edx
  400ea9:	48 85 d2             	test   %rdx,%rdx
  400eac:	74 f4                	je     400ea2 <register_tm_clones+0x22>
  400eae:	5d                   	pop    %rbp
  400eaf:	48 89 c6             	mov    %rax,%rsi
  400eb2:	bf b0 44 60 00       	mov    $0x6044b0,%edi
  400eb7:	ff e2                	jmpq   *%rdx
  400eb9:	0f 1f 80 00 00 00 00 	nopl   0x0(%rax)

0000000000400ec0 <__do_global_dtors_aux>:
  400ec0:	80 3d 11 36 20 00 00 	cmpb   $0x0,0x203611(%rip)        # 6044d8 <completed.6344>
  400ec7:	75 11                	jne    400eda <__do_global_dtors_aux+0x1a>
  400ec9:	55                   	push   %rbp
  400eca:	48 89 e5             	mov    %rsp,%rbp
  400ecd:	e8 7e ff ff ff       	callq  400e50 <deregister_tm_clones>
  400ed2:	5d                   	pop    %rbp
  400ed3:	c6 05 fe 35 20 00 01 	movb   $0x1,0x2035fe(%rip)        # 6044d8 <completed.6344>
  400eda:	f3 c3                	repz retq 
  400edc:	0f 1f 40 00          	nopl   0x0(%rax)

0000000000400ee0 <frame_dummy>:
  400ee0:	48 83 3d 38 2f 20 00 	cmpq   $0x0,0x202f38(%rip)        # 603e20 <__JCR_END__>
  400ee7:	00 
  400ee8:	74 1e                	je     400f08 <frame_dummy+0x28>
  400eea:	b8 00 00 00 00       	mov    $0x0,%eax
  400eef:	48 85 c0             	test   %rax,%rax
  400ef2:	74 14                	je     400f08 <frame_dummy+0x28>
  400ef4:	55                   	push   %rbp
  400ef5:	bf 20 3e 60 00       	mov    $0x603e20,%edi
  400efa:	48 89 e5             	mov    %rsp,%rbp
  400efd:	ff d0                	callq  *%rax
  400eff:	5d                   	pop    %rbp
  400f00:	e9 7b ff ff ff       	jmpq   400e80 <register_tm_clones>
  400f05:	0f 1f 00             	nopl   (%rax)
  400f08:	e9 73 ff ff ff       	jmpq   400e80 <register_tm_clones>
  400f0d:	0f 1f 00             	nopl   (%rax)

0000000000400f10 <usage>:
  400f10:	48 83 ec 08          	sub    $0x8,%rsp
  400f14:	48 89 fe             	mov    %rdi,%rsi
  400f17:	83 3d ea 35 20 00 00 	cmpl   $0x0,0x2035ea(%rip)        # 604508 <is_checker>
  400f1e:	74 39                	je     400f59 <usage+0x49>
  400f20:	bf 20 2b 40 00       	mov    $0x402b20,%edi
  400f25:	b8 00 00 00 00       	mov    $0x0,%eax
  400f2a:	e8 51 fd ff ff       	callq  400c80 <printf@plt>
  400f2f:	bf 58 2b 40 00       	mov    $0x402b58,%edi
  400f34:	e8 17 fd ff ff       	callq  400c50 <puts@plt>
  400f39:	bf d0 2c 40 00       	mov    $0x402cd0,%edi
  400f3e:	e8 0d fd ff ff       	callq  400c50 <puts@plt>
  400f43:	bf 80 2b 40 00       	mov    $0x402b80,%edi
  400f48:	e8 03 fd ff ff       	callq  400c50 <puts@plt>
  400f4d:	bf ea 2c 40 00       	mov    $0x402cea,%edi
  400f52:	e8 f9 fc ff ff       	callq  400c50 <puts@plt>
  400f57:	eb 2d                	jmp    400f86 <usage+0x76>
  400f59:	bf 06 2d 40 00       	mov    $0x402d06,%edi
  400f5e:	b8 00 00 00 00       	mov    $0x0,%eax
  400f63:	e8 18 fd ff ff       	callq  400c80 <printf@plt>
  400f68:	bf a8 2b 40 00       	mov    $0x402ba8,%edi
  400f6d:	e8 de fc ff ff       	callq  400c50 <puts@plt>
  400f72:	bf d0 2b 40 00       	mov    $0x402bd0,%edi
  400f77:	e8 d4 fc ff ff       	callq  400c50 <puts@plt>
  400f7c:	bf 24 2d 40 00       	mov    $0x402d24,%edi
  400f81:	e8 ca fc ff ff       	callq  400c50 <puts@plt>
  400f86:	bf 00 00 00 00       	mov    $0x0,%edi
  400f8b:	e8 60 fe ff ff       	callq  400df0 <exit@plt>

0000000000400f90 <initialize_target>:
  400f90:	55                   	push   %rbp
  400f91:	53                   	push   %rbx
  400f92:	48 81 ec 08 21 00 00 	sub    $0x2108,%rsp
  400f99:	89 f5                	mov    %esi,%ebp
  400f9b:	89 3d 57 35 20 00    	mov    %edi,0x203557(%rip)        # 6044f8 <check_level>
  400fa1:	8b 3d c1 31 20 00    	mov    0x2031c1(%rip),%edi        # 604168 <target_id>
  400fa7:	e8 b7 1a 00 00       	callq  402a63 <gencookie>
  400fac:	89 05 52 35 20 00    	mov    %eax,0x203552(%rip)        # 604504 <cookie>
  400fb2:	89 c7                	mov    %eax,%edi
  400fb4:	e8 aa 1a 00 00       	callq  402a63 <gencookie>
  400fb9:	89 05 41 35 20 00    	mov    %eax,0x203541(%rip)        # 604500 <authkey>
  400fbf:	8b 05 a3 31 20 00    	mov    0x2031a3(%rip),%eax        # 604168 <target_id>
  400fc5:	8d 78 01             	lea    0x1(%rax),%edi
  400fc8:	e8 53 fc ff ff       	callq  400c20 <srandom@plt>
  400fcd:	e8 7e fd ff ff       	callq  400d50 <random@plt>
  400fd2:	89 c7                	mov    %eax,%edi
  400fd4:	e8 ca 02 00 00       	callq  4012a3 <scramble>
  400fd9:	89 c3                	mov    %eax,%ebx
  400fdb:	85 ed                	test   %ebp,%ebp
  400fdd:	74 18                	je     400ff7 <initialize_target+0x67>
  400fdf:	bf 00 00 00 00       	mov    $0x0,%edi
  400fe4:	e8 57 fd ff ff       	callq  400d40 <time@plt>
  400fe9:	89 c7                	mov    %eax,%edi
  400feb:	e8 30 fc ff ff       	callq  400c20 <srandom@plt>
  400ff0:	e8 5b fd ff ff       	callq  400d50 <random@plt>
  400ff5:	eb 05                	jmp    400ffc <initialize_target+0x6c>
  400ff7:	b8 00 00 00 00       	mov    $0x0,%eax
  400ffc:	01 c3                	add    %eax,%ebx
  400ffe:	0f b7 db             	movzwl %bx,%ebx
  401001:	8d 04 dd 00 01 00 00 	lea    0x100(,%rbx,8),%eax
  401008:	89 c0                	mov    %eax,%eax
  40100a:	48 89 05 8f 34 20 00 	mov    %rax,0x20348f(%rip)        # 6044a0 <buf_offset>
  401011:	c6 05 10 41 20 00 63 	movb   $0x63,0x204110(%rip)        # 605128 <target_prefix>
  401018:	83 3d 89 34 20 00 00 	cmpl   $0x0,0x203489(%rip)        # 6044a8 <notify>
  40101f:	0f 84 b1 00 00 00    	je     4010d6 <initialize_target+0x146>
  401025:	83 3d dc 34 20 00 00 	cmpl   $0x0,0x2034dc(%rip)        # 604508 <is_checker>
  40102c:	0f 85 a4 00 00 00    	jne    4010d6 <initialize_target+0x146>
  401032:	be 00 01 00 00       	mov    $0x100,%esi
  401037:	48 89 e7             	mov    %rsp,%rdi
  40103a:	e8 91 fd ff ff       	callq  400dd0 <gethostname@plt>
  40103f:	85 c0                	test   %eax,%eax
  401041:	74 25                	je     401068 <initialize_target+0xd8>
  401043:	bf 00 2c 40 00       	mov    $0x402c00,%edi
  401048:	e8 03 fc ff ff       	callq  400c50 <puts@plt>
  40104d:	bf 08 00 00 00       	mov    $0x8,%edi
  401052:	e8 99 fd ff ff       	callq  400df0 <exit@plt>
  401057:	48 89 e6             	mov    %rsp,%rsi
  40105a:	e8 a1 fb ff ff       	callq  400c00 <strcasecmp@plt>
  40105f:	85 c0                	test   %eax,%eax
  401061:	74 21                	je     401084 <initialize_target+0xf4>
  401063:	83 c3 01             	add    $0x1,%ebx
  401066:	eb 05                	jmp    40106d <initialize_target+0xdd>
  401068:	bb 00 00 00 00       	mov    $0x0,%ebx
  40106d:	48 63 c3             	movslq %ebx,%rax
  401070:	48 8b 3c c5 80 41 60 	mov    0x604180(,%rax,8),%rdi
  401077:	00 
  401078:	48 85 ff             	test   %rdi,%rdi
  40107b:	75 da                	jne    401057 <initialize_target+0xc7>
  40107d:	b8 00 00 00 00       	mov    $0x0,%eax
  401082:	eb 05                	jmp    401089 <initialize_target+0xf9>
  401084:	b8 01 00 00 00       	mov    $0x1,%eax
  401089:	85 c0                	test   %eax,%eax
  40108b:	75 17                	jne    4010a4 <initialize_target+0x114>
  40108d:	48 89 e6             	mov    %rsp,%rsi
  401090:	bf 38 2c 40 00       	mov    $0x402c38,%edi
  401095:	e8 e6 fb ff ff       	callq  400c80 <printf@plt>
  40109a:	bf 08 00 00 00       	mov    $0x8,%edi
  40109f:	e8 4c fd ff ff       	callq  400df0 <exit@plt>
  4010a4:	48 8d bc 24 00 01 00 	lea    0x100(%rsp),%rdi
  4010ab:	00 
  4010ac:	e8 49 17 00 00       	callq  4027fa <init_driver>
  4010b1:	85 c0                	test   %eax,%eax
  4010b3:	79 21                	jns    4010d6 <initialize_target+0x146>
  4010b5:	48 8d b4 24 00 01 00 	lea    0x100(%rsp),%rsi
  4010bc:	00 
  4010bd:	bf 78 2c 40 00       	mov    $0x402c78,%edi
  4010c2:	b8 00 00 00 00       	mov    $0x0,%eax
  4010c7:	e8 b4 fb ff ff       	callq  400c80 <printf@plt>
  4010cc:	bf 08 00 00 00       	mov    $0x8,%edi
  4010d1:	e8 1a fd ff ff       	callq  400df0 <exit@plt>
  4010d6:	48 81 c4 08 21 00 00 	add    $0x2108,%rsp
  4010dd:	5b                   	pop    %rbx
  4010de:	5d                   	pop    %rbp
  4010df:	c3                   	retq   

00000000004010e0 <main>:
  4010e0:	41 56                	push   %r14
  4010e2:	41 55                	push   %r13
  4010e4:	41 54                	push   %r12
  4010e6:	55                   	push   %rbp
  4010e7:	53                   	push   %rbx
  4010e8:	41 89 fc             	mov    %edi,%r12d
  4010eb:	48 89 f3             	mov    %rsi,%rbx
  4010ee:	be 21 1c 40 00       	mov    $0x401c21,%esi
  4010f3:	bf 0b 00 00 00       	mov    $0xb,%edi
  4010f8:	e8 e3 fb ff ff       	callq  400ce0 <signal@plt>
  4010fd:	be d3 1b 40 00       	mov    $0x401bd3,%esi
  401102:	bf 07 00 00 00       	mov    $0x7,%edi
  401107:	e8 d4 fb ff ff       	callq  400ce0 <signal@plt>
  40110c:	be 6f 1c 40 00       	mov    $0x401c6f,%esi
  401111:	bf 04 00 00 00       	mov    $0x4,%edi
  401116:	e8 c5 fb ff ff       	callq  400ce0 <signal@plt>
  40111b:	83 3d e6 33 20 00 00 	cmpl   $0x0,0x2033e6(%rip)        # 604508 <is_checker>
  401122:	74 20                	je     401144 <main+0x64>
  401124:	be bd 1c 40 00       	mov    $0x401cbd,%esi
  401129:	bf 0e 00 00 00       	mov    $0xe,%edi
  40112e:	e8 ad fb ff ff       	callq  400ce0 <signal@plt>
  401133:	bf 05 00 00 00       	mov    $0x5,%edi
  401138:	e8 63 fb ff ff       	callq  400ca0 <alarm@plt>
  40113d:	bd 42 2d 40 00       	mov    $0x402d42,%ebp
  401142:	eb 05                	jmp    401149 <main+0x69>
  401144:	bd 3d 2d 40 00       	mov    $0x402d3d,%ebp
  401149:	48 8b 05 70 33 20 00 	mov    0x203370(%rip),%rax        # 6044c0 <stdin@@GLIBC_2.2.5>
  401150:	48 89 05 99 33 20 00 	mov    %rax,0x203399(%rip)        # 6044f0 <infile>
  401157:	41 bd 00 00 00 00    	mov    $0x0,%r13d
  40115d:	41 be 00 00 00 00    	mov    $0x0,%r14d
  401163:	e9 b9 00 00 00       	jmpq   401221 <main+0x141>
  401168:	83 e8 61             	sub    $0x61,%eax
  40116b:	3c 10                	cmp    $0x10,%al
  40116d:	0f 87 93 00 00 00    	ja     401206 <main+0x126>
  401173:	0f b6 c0             	movzbl %al,%eax
  401176:	ff 24 c5 88 2d 40 00 	jmpq   *0x402d88(,%rax,8)
  40117d:	48 8b 3b             	mov    (%rbx),%rdi
  401180:	e8 8b fd ff ff       	callq  400f10 <usage>
  401185:	be 1d 31 40 00       	mov    $0x40311d,%esi
  40118a:	48 8b 3d 37 33 20 00 	mov    0x203337(%rip),%rdi        # 6044c8 <optarg@@GLIBC_2.2.5>
  401191:	e8 0a fc ff ff       	callq  400da0 <fopen@plt>
  401196:	48 89 05 53 33 20 00 	mov    %rax,0x203353(%rip)        # 6044f0 <infile>
  40119d:	48 85 c0             	test   %rax,%rax
  4011a0:	75 7f                	jne    401221 <main+0x141>
  4011a2:	48 8b 15 1f 33 20 00 	mov    0x20331f(%rip),%rdx        # 6044c8 <optarg@@GLIBC_2.2.5>
  4011a9:	be 4a 2d 40 00       	mov    $0x402d4a,%esi
  4011ae:	48 8b 3d 1b 33 20 00 	mov    0x20331b(%rip),%rdi        # 6044d0 <stderr@@GLIBC_2.2.5>
  4011b5:	e8 46 fb ff ff       	callq  400d00 <fprintf@plt>
  4011ba:	b8 01 00 00 00       	mov    $0x1,%eax
  4011bf:	e9 d6 00 00 00       	jmpq   40129a <main+0x1ba>
  4011c4:	ba 10 00 00 00       	mov    $0x10,%edx
  4011c9:	be 00 00 00 00       	mov    $0x0,%esi
  4011ce:	48 8b 3d f3 32 20 00 	mov    0x2032f3(%rip),%rdi        # 6044c8 <optarg@@GLIBC_2.2.5>
  4011d5:	e8 e6 fb ff ff       	callq  400dc0 <strtoul@plt>
  4011da:	41 89 c6             	mov    %eax,%r14d
  4011dd:	eb 42                	jmp    401221 <main+0x141>
  4011df:	ba 0a 00 00 00       	mov    $0xa,%edx
  4011e4:	be 00 00 00 00       	mov    $0x0,%esi
  4011e9:	48 8b 3d d8 32 20 00 	mov    0x2032d8(%rip),%rdi        # 6044c8 <optarg@@GLIBC_2.2.5>
  4011f0:	e8 2b fb ff ff       	callq  400d20 <strtol@plt>
  4011f5:	41 89 c5             	mov    %eax,%r13d
  4011f8:	eb 27                	jmp    401221 <main+0x141>
  4011fa:	c7 05 a4 32 20 00 00 	movl   $0x0,0x2032a4(%rip)        # 6044a8 <notify>
  401201:	00 00 00 
  401204:	eb 1b                	jmp    401221 <main+0x141>
  401206:	40 0f be f6          	movsbl %sil,%esi
  40120a:	bf 67 2d 40 00       	mov    $0x402d67,%edi
  40120f:	b8 00 00 00 00       	mov    $0x0,%eax
  401214:	e8 67 fa ff ff       	callq  400c80 <printf@plt>
  401219:	48 8b 3b             	mov    (%rbx),%rdi
  40121c:	e8 ef fc ff ff       	callq  400f10 <usage>
  401221:	48 89 ea             	mov    %rbp,%rdx
  401224:	48 89 de             	mov    %rbx,%rsi
  401227:	44 89 e7             	mov    %r12d,%edi
  40122a:	e8 81 fb ff ff       	callq  400db0 <getopt@plt>
  40122f:	89 c6                	mov    %eax,%esi
  401231:	3c ff                	cmp    $0xff,%al
  401233:	0f 85 2f ff ff ff    	jne    401168 <main+0x88>
  401239:	be 00 00 00 00       	mov    $0x0,%esi
  40123e:	44 89 ef             	mov    %r13d,%edi
  401241:	e8 4a fd ff ff       	callq  400f90 <initialize_target>
  401246:	83 3d bb 32 20 00 00 	cmpl   $0x0,0x2032bb(%rip)        # 604508 <is_checker>
  40124d:	74 25                	je     401274 <main+0x194>
  40124f:	44 3b 35 aa 32 20 00 	cmp    0x2032aa(%rip),%r14d        # 604500 <authkey>
  401256:	74 1c                	je     401274 <main+0x194>
  401258:	44 89 f6             	mov    %r14d,%esi
  40125b:	bf a0 2c 40 00       	mov    $0x402ca0,%edi
  401260:	b8 00 00 00 00       	mov    $0x0,%eax
  401265:	e8 16 fa ff ff       	callq  400c80 <printf@plt>
  40126a:	b8 00 00 00 00       	mov    $0x0,%eax
  40126f:	e8 67 06 00 00       	callq  4018db <check_fail>
  401274:	8b 35 8a 32 20 00    	mov    0x20328a(%rip),%esi        # 604504 <cookie>
  40127a:	bf 7a 2d 40 00       	mov    $0x402d7a,%edi
  40127f:	b8 00 00 00 00       	mov    $0x0,%eax
  401284:	e8 f7 f9 ff ff       	callq  400c80 <printf@plt>
  401289:	48 8b 3d 10 32 20 00 	mov    0x203210(%rip),%rdi        # 6044a0 <buf_offset>
  401290:	e8 f7 0a 00 00       	callq  401d8c <stable_launch>
  401295:	b8 00 00 00 00       	mov    $0x0,%eax
  40129a:	5b                   	pop    %rbx
  40129b:	5d                   	pop    %rbp
  40129c:	41 5c                	pop    %r12
  40129e:	41 5d                	pop    %r13
  4012a0:	41 5e                	pop    %r14
  4012a2:	c3                   	retq   

00000000004012a3 <scramble>:
  4012a3:	b8 00 00 00 00       	mov    $0x0,%eax
  4012a8:	eb 11                	jmp    4012bb <scramble+0x18>
  4012aa:	69 c8 da 49 00 00    	imul   $0x49da,%eax,%ecx
  4012b0:	01 f9                	add    %edi,%ecx
  4012b2:	89 c2                	mov    %eax,%edx
  4012b4:	89 4c 94 d0          	mov    %ecx,-0x30(%rsp,%rdx,4)
  4012b8:	83 c0 01             	add    $0x1,%eax
  4012bb:	83 f8 09             	cmp    $0x9,%eax
  4012be:	76 ea                	jbe    4012aa <scramble+0x7>
  4012c0:	8b 44 24 dc          	mov    -0x24(%rsp),%eax
  4012c4:	69 c0 83 23 00 00    	imul   $0x2383,%eax,%eax
  4012ca:	89 44 24 dc          	mov    %eax,-0x24(%rsp)
  4012ce:	8b 44 24 f0          	mov    -0x10(%rsp),%eax
  4012d2:	69 c0 f1 71 00 00    	imul   $0x71f1,%eax,%eax
  4012d8:	89 44 24 f0          	mov    %eax,-0x10(%rsp)
  4012dc:	8b 44 24 ec          	mov    -0x14(%rsp),%eax
  4012e0:	69 c0 2e 90 00 00    	imul   $0x902e,%eax,%eax
  4012e6:	89 44 24 ec          	mov    %eax,-0x14(%rsp)
  4012ea:	8b 44 24 f0          	mov    -0x10(%rsp),%eax
  4012ee:	69 c0 34 dc 00 00    	imul   $0xdc34,%eax,%eax
  4012f4:	89 44 24 f0          	mov    %eax,-0x10(%rsp)
  4012f8:	8b 44 24 ec          	mov    -0x14(%rsp),%eax
  4012fc:	69 c0 32 2f 00 00    	imul   $0x2f32,%eax,%eax
  401302:	89 44 24 ec          	mov    %eax,-0x14(%rsp)
  401306:	8b 44 24 e0          	mov    -0x20(%rsp),%eax
  40130a:	69 c0 4f 78 00 00    	imul   $0x784f,%eax,%eax
  401310:	89 44 24 e0          	mov    %eax,-0x20(%rsp)
  401314:	8b 44 24 ec          	mov    -0x14(%rsp),%eax
  401318:	69 c0 5d 9a 00 00    	imul   $0x9a5d,%eax,%eax
  40131e:	89 44 24 ec          	mov    %eax,-0x14(%rsp)
  401322:	8b 44 24 e0          	mov    -0x20(%rsp),%eax
  401326:	69 c0 7a 0b 00 00    	imul   $0xb7a,%eax,%eax
  40132c:	89 44 24 e0          	mov    %eax,-0x20(%rsp)
  401330:	8b 44 24 f4          	mov    -0xc(%rsp),%eax
  401334:	69 c0 28 da 00 00    	imul   $0xda28,%eax,%eax
  40133a:	89 44 24 f4          	mov    %eax,-0xc(%rsp)
  40133e:	8b 44 24 d0          	mov    -0x30(%rsp),%eax
  401342:	69 c0 8c e8 00 00    	imul   $0xe88c,%eax,%eax
  401348:	89 44 24 d0          	mov    %eax,-0x30(%rsp)
  40134c:	8b 44 24 ec          	mov    -0x14(%rsp),%eax
  401350:	69 c0 a8 18 00 00    	imul   $0x18a8,%eax,%eax
  401356:	89 44 24 ec          	mov    %eax,-0x14(%rsp)
  40135a:	8b 44 24 e4          	mov    -0x1c(%rsp),%eax
  40135e:	69 c0 4d 90 00 00    	imul   $0x904d,%eax,%eax
  401364:	89 44 24 e4          	mov    %eax,-0x1c(%rsp)
  401368:	8b 44 24 d0          	mov    -0x30(%rsp),%eax
  40136c:	69 c0 9b 85 00 00    	imul   $0x859b,%eax,%eax
  401372:	89 44 24 d0          	mov    %eax,-0x30(%rsp)
  401376:	8b 44 24 dc          	mov    -0x24(%rsp),%eax
  40137a:	69 c0 dd 55 00 00    	imul   $0x55dd,%eax,%eax
  401380:	89 44 24 dc          	mov    %eax,-0x24(%rsp)
  401384:	8b 44 24 d8          	mov    -0x28(%rsp),%eax
  401388:	69 c0 6a 75 00 00    	imul   $0x756a,%eax,%eax
  40138e:	89 44 24 d8          	mov    %eax,-0x28(%rsp)
  401392:	8b 44 24 e4          	mov    -0x1c(%rsp),%eax
  401396:	69 c0 7b 4d 00 00    	imul   $0x4d7b,%eax,%eax
  40139c:	89 44 24 e4          	mov    %eax,-0x1c(%rsp)
  4013a0:	8b 44 24 f0          	mov    -0x10(%rsp),%eax
  4013a4:	69 c0 31 59 00 00    	imul   $0x5931,%eax,%eax
  4013aa:	89 44 24 f0          	mov    %eax,-0x10(%rsp)
  4013ae:	8b 44 24 e0          	mov    -0x20(%rsp),%eax
  4013b2:	69 c0 b3 86 00 00    	imul   $0x86b3,%eax,%eax
  4013b8:	89 44 24 e0          	mov    %eax,-0x20(%rsp)
  4013bc:	8b 44 24 e8          	mov    -0x18(%rsp),%eax
  4013c0:	69 c0 7b ef 00 00    	imul   $0xef7b,%eax,%eax
  4013c6:	89 44 24 e8          	mov    %eax,-0x18(%rsp)
  4013ca:	8b 44 24 e4          	mov    -0x1c(%rsp),%eax
  4013ce:	69 c0 34 3f 00 00    	imul   $0x3f34,%eax,%eax
  4013d4:	89 44 24 e4          	mov    %eax,-0x1c(%rsp)
  4013d8:	8b 44 24 d4          	mov    -0x2c(%rsp),%eax
  4013dc:	69 c0 b7 0e 00 00    	imul   $0xeb7,%eax,%eax
  4013e2:	89 44 24 d4          	mov    %eax,-0x2c(%rsp)
  4013e6:	8b 44 24 d0          	mov    -0x30(%rsp),%eax
  4013ea:	69 c0 f3 aa 00 00    	imul   $0xaaf3,%eax,%eax
  4013f0:	89 44 24 d0          	mov    %eax,-0x30(%rsp)
  4013f4:	8b 44 24 f0          	mov    -0x10(%rsp),%eax
  4013f8:	69 c0 83 48 00 00    	imul   $0x4883,%eax,%eax
  4013fe:	89 44 24 f0          	mov    %eax,-0x10(%rsp)
  401402:	8b 44 24 e4          	mov    -0x1c(%rsp),%eax
  401406:	69 c0 7a 3b 00 00    	imul   $0x3b7a,%eax,%eax
  40140c:	89 44 24 e4          	mov    %eax,-0x1c(%rsp)
  401410:	8b 44 24 f0          	mov    -0x10(%rsp),%eax
  401414:	69 c0 f5 6d 00 00    	imul   $0x6df5,%eax,%eax
  40141a:	89 44 24 f0          	mov    %eax,-0x10(%rsp)
  40141e:	8b 44 24 e4          	mov    -0x1c(%rsp),%eax
  401422:	69 c0 36 f2 00 00    	imul   $0xf236,%eax,%eax
  401428:	89 44 24 e4          	mov    %eax,-0x1c(%rsp)
  40142c:	8b 44 24 ec          	mov    -0x14(%rsp),%eax
  401430:	69 c0 ea c0 00 00    	imul   $0xc0ea,%eax,%eax
  401436:	89 44 24 ec          	mov    %eax,-0x14(%rsp)
  40143a:	8b 44 24 e4          	mov    -0x1c(%rsp),%eax
  40143e:	69 c0 1c d3 00 00    	imul   $0xd31c,%eax,%eax
  401444:	89 44 24 e4          	mov    %eax,-0x1c(%rsp)
  401448:	8b 44 24 d4          	mov    -0x2c(%rsp),%eax
  40144c:	69 c0 4b ca 00 00    	imul   $0xca4b,%eax,%eax
  401452:	89 44 24 d4          	mov    %eax,-0x2c(%rsp)
  401456:	8b 44 24 dc          	mov    -0x24(%rsp),%eax
  40145a:	69 c0 26 4a 00 00    	imul   $0x4a26,%eax,%eax
  401460:	89 44 24 dc          	mov    %eax,-0x24(%rsp)
  401464:	8b 44 24 d4          	mov    -0x2c(%rsp),%eax
  401468:	69 c0 d7 5c 00 00    	imul   $0x5cd7,%eax,%eax
  40146e:	89 44 24 d4          	mov    %eax,-0x2c(%rsp)
  401472:	8b 44 24 d4          	mov    -0x2c(%rsp),%eax
  401476:	69 c0 a2 d8 00 00    	imul   $0xd8a2,%eax,%eax
  40147c:	89 44 24 d4          	mov    %eax,-0x2c(%rsp)
  401480:	8b 44 24 d8          	mov    -0x28(%rsp),%eax
  401484:	69 c0 0d 57 00 00    	imul   $0x570d,%eax,%eax
  40148a:	89 44 24 d8          	mov    %eax,-0x28(%rsp)
  40148e:	8b 44 24 e8          	mov    -0x18(%rsp),%eax
  401492:	69 c0 69 9f 00 00    	imul   $0x9f69,%eax,%eax
  401498:	89 44 24 e8          	mov    %eax,-0x18(%rsp)
  40149c:	8b 44 24 f4          	mov    -0xc(%rsp),%eax
  4014a0:	69 c0 3e c2 00 00    	imul   $0xc23e,%eax,%eax
  4014a6:	89 44 24 f4          	mov    %eax,-0xc(%rsp)
  4014aa:	8b 44 24 e4          	mov    -0x1c(%rsp),%eax
  4014ae:	69 c0 35 65 00 00    	imul   $0x6535,%eax,%eax
  4014b4:	89 44 24 e4          	mov    %eax,-0x1c(%rsp)
  4014b8:	8b 44 24 dc          	mov    -0x24(%rsp),%eax
  4014bc:	69 c0 20 96 00 00    	imul   $0x9620,%eax,%eax
  4014c2:	89 44 24 dc          	mov    %eax,-0x24(%rsp)
  4014c6:	8b 44 24 dc          	mov    -0x24(%rsp),%eax
  4014ca:	69 c0 0a 7a 00 00    	imul   $0x7a0a,%eax,%eax
  4014d0:	89 44 24 dc          	mov    %eax,-0x24(%rsp)
  4014d4:	8b 44 24 d8          	mov    -0x28(%rsp),%eax
  4014d8:	69 c0 97 c6 00 00    	imul   $0xc697,%eax,%eax
  4014de:	89 44 24 d8          	mov    %eax,-0x28(%rsp)
  4014e2:	8b 44 24 d8          	mov    -0x28(%rsp),%eax
  4014e6:	69 c0 4f 01 00 00    	imul   $0x14f,%eax,%eax
  4014ec:	89 44 24 d8          	mov    %eax,-0x28(%rsp)
  4014f0:	8b 44 24 ec          	mov    -0x14(%rsp),%eax
  4014f4:	69 c0 8b d9 00 00    	imul   $0xd98b,%eax,%eax
  4014fa:	89 44 24 ec          	mov    %eax,-0x14(%rsp)
  4014fe:	8b 44 24 d4          	mov    -0x2c(%rsp),%eax
  401502:	69 c0 29 bb 00 00    	imul   $0xbb29,%eax,%eax
  401508:	89 44 24 d4          	mov    %eax,-0x2c(%rsp)
  40150c:	8b 44 24 d8          	mov    -0x28(%rsp),%eax
  401510:	69 c0 08 76 00 00    	imul   $0x7608,%eax,%eax
  401516:	89 44 24 d8          	mov    %eax,-0x28(%rsp)
  40151a:	8b 44 24 e0          	mov    -0x20(%rsp),%eax
  40151e:	69 c0 fa e0 00 00    	imul   $0xe0fa,%eax,%eax
  401524:	89 44 24 e0          	mov    %eax,-0x20(%rsp)
  401528:	8b 44 24 f4          	mov    -0xc(%rsp),%eax
  40152c:	69 c0 3f b7 00 00    	imul   $0xb73f,%eax,%eax
  401532:	89 44 24 f4          	mov    %eax,-0xc(%rsp)
  401536:	8b 44 24 d4          	mov    -0x2c(%rsp),%eax
  40153a:	69 c0 09 80 00 00    	imul   $0x8009,%eax,%eax
  401540:	89 44 24 d4          	mov    %eax,-0x2c(%rsp)
  401544:	8b 44 24 f0          	mov    -0x10(%rsp),%eax
  401548:	69 c0 c2 c2 00 00    	imul   $0xc2c2,%eax,%eax
  40154e:	89 44 24 f0          	mov    %eax,-0x10(%rsp)
  401552:	8b 44 24 d0          	mov    -0x30(%rsp),%eax
  401556:	69 c0 20 ca 00 00    	imul   $0xca20,%eax,%eax
  40155c:	89 44 24 d0          	mov    %eax,-0x30(%rsp)
  401560:	8b 44 24 f4          	mov    -0xc(%rsp),%eax
  401564:	69 c0 02 b8 00 00    	imul   $0xb802,%eax,%eax
  40156a:	89 44 24 f4          	mov    %eax,-0xc(%rsp)
  40156e:	8b 44 24 d8          	mov    -0x28(%rsp),%eax
  401572:	69 c0 58 60 00 00    	imul   $0x6058,%eax,%eax
  401578:	89 44 24 d8          	mov    %eax,-0x28(%rsp)
  40157c:	8b 44 24 d0          	mov    -0x30(%rsp),%eax
  401580:	69 c0 26 48 00 00    	imul   $0x4826,%eax,%eax
  401586:	89 44 24 d0          	mov    %eax,-0x30(%rsp)
  40158a:	8b 44 24 d8          	mov    -0x28(%rsp),%eax
  40158e:	69 c0 35 4b 00 00    	imul   $0x4b35,%eax,%eax
  401594:	89 44 24 d8          	mov    %eax,-0x28(%rsp)
  401598:	8b 44 24 e4          	mov    -0x1c(%rsp),%eax
  40159c:	69 c0 b7 d5 00 00    	imul   $0xd5b7,%eax,%eax
  4015a2:	89 44 24 e4          	mov    %eax,-0x1c(%rsp)
  4015a6:	8b 44 24 f0          	mov    -0x10(%rsp),%eax
  4015aa:	69 c0 ea bc 00 00    	imul   $0xbcea,%eax,%eax
  4015b0:	89 44 24 f0          	mov    %eax,-0x10(%rsp)
  4015b4:	8b 44 24 ec          	mov    -0x14(%rsp),%eax
  4015b8:	69 c0 c4 7a 00 00    	imul   $0x7ac4,%eax,%eax
  4015be:	89 44 24 ec          	mov    %eax,-0x14(%rsp)
  4015c2:	8b 44 24 e4          	mov    -0x1c(%rsp),%eax
  4015c6:	69 c0 da d0 00 00    	imul   $0xd0da,%eax,%eax
  4015cc:	89 44 24 e4          	mov    %eax,-0x1c(%rsp)
  4015d0:	8b 44 24 d4          	mov    -0x2c(%rsp),%eax
  4015d4:	69 c0 be b1 00 00    	imul   $0xb1be,%eax,%eax
  4015da:	89 44 24 d4          	mov    %eax,-0x2c(%rsp)
  4015de:	8b 44 24 d8          	mov    -0x28(%rsp),%eax
  4015e2:	69 c0 c4 ee 00 00    	imul   $0xeec4,%eax,%eax
  4015e8:	89 44 24 d8          	mov    %eax,-0x28(%rsp)
  4015ec:	8b 44 24 e8          	mov    -0x18(%rsp),%eax
  4015f0:	69 c0 49 1a 00 00    	imul   $0x1a49,%eax,%eax
  4015f6:	89 44 24 e8          	mov    %eax,-0x18(%rsp)
  4015fa:	8b 44 24 f4          	mov    -0xc(%rsp),%eax
  4015fe:	69 c0 1a 68 00 00    	imul   $0x681a,%eax,%eax
  401604:	89 44 24 f4          	mov    %eax,-0xc(%rsp)
  401608:	8b 44 24 f0          	mov    -0x10(%rsp),%eax
  40160c:	69 c0 df fa 00 00    	imul   $0xfadf,%eax,%eax
  401612:	89 44 24 f0          	mov    %eax,-0x10(%rsp)
  401616:	8b 44 24 e8          	mov    -0x18(%rsp),%eax
  40161a:	69 c0 a0 e5 00 00    	imul   $0xe5a0,%eax,%eax
  401620:	89 44 24 e8          	mov    %eax,-0x18(%rsp)
  401624:	8b 44 24 e0          	mov    -0x20(%rsp),%eax
  401628:	69 c0 d0 40 00 00    	imul   $0x40d0,%eax,%eax
  40162e:	89 44 24 e0          	mov    %eax,-0x20(%rsp)
  401632:	8b 44 24 f0          	mov    -0x10(%rsp),%eax
  401636:	69 c0 72 d7 00 00    	imul   $0xd772,%eax,%eax
  40163c:	89 44 24 f0          	mov    %eax,-0x10(%rsp)
  401640:	8b 44 24 e8          	mov    -0x18(%rsp),%eax
  401644:	69 c0 49 19 00 00    	imul   $0x1949,%eax,%eax
  40164a:	89 44 24 e8          	mov    %eax,-0x18(%rsp)
  40164e:	8b 44 24 e4          	mov    -0x1c(%rsp),%eax
  401652:	69 c0 12 73 00 00    	imul   $0x7312,%eax,%eax
  401658:	89 44 24 e4          	mov    %eax,-0x1c(%rsp)
  40165c:	8b 44 24 d4          	mov    -0x2c(%rsp),%eax
  401660:	69 c0 58 fd 00 00    	imul   $0xfd58,%eax,%eax
  401666:	89 44 24 d4          	mov    %eax,-0x2c(%rsp)
  40166a:	8b 44 24 e4          	mov    -0x1c(%rsp),%eax
  40166e:	69 c0 b5 3f 00 00    	imul   $0x3fb5,%eax,%eax
  401674:	89 44 24 e4          	mov    %eax,-0x1c(%rsp)
  401678:	8b 44 24 ec          	mov    -0x14(%rsp),%eax
  40167c:	69 c0 87 83 00 00    	imul   $0x8387,%eax,%eax
  401682:	89 44 24 ec          	mov    %eax,-0x14(%rsp)
  401686:	8b 44 24 f4          	mov    -0xc(%rsp),%eax
  40168a:	69 c0 5d 6f 00 00    	imul   $0x6f5d,%eax,%eax
  401690:	89 44 24 f4          	mov    %eax,-0xc(%rsp)
  401694:	8b 44 24 ec          	mov    -0x14(%rsp),%eax
  401698:	69 c0 d8 ba 00 00    	imul   $0xbad8,%eax,%eax
  40169e:	89 44 24 ec          	mov    %eax,-0x14(%rsp)
  4016a2:	8b 44 24 d8          	mov    -0x28(%rsp),%eax
  4016a6:	69 c0 9a 52 00 00    	imul   $0x529a,%eax,%eax
  4016ac:	89 44 24 d8          	mov    %eax,-0x28(%rsp)
  4016b0:	ba 00 00 00 00       	mov    $0x0,%edx
  4016b5:	b8 00 00 00 00       	mov    $0x0,%eax
  4016ba:	eb 0b                	jmp    4016c7 <scramble+0x424>
  4016bc:	89 d1                	mov    %edx,%ecx
  4016be:	8b 4c 8c d0          	mov    -0x30(%rsp,%rcx,4),%ecx
  4016c2:	01 c8                	add    %ecx,%eax
  4016c4:	83 c2 01             	add    $0x1,%edx
  4016c7:	83 fa 09             	cmp    $0x9,%edx
  4016ca:	76 f0                	jbe    4016bc <scramble+0x419>
  4016cc:	f3 c3                	repz retq 

00000000004016ce <getbuf>:
  4016ce:	48 83 ec 38          	sub    $0x38,%rsp
  4016d2:	48 89 e7             	mov    %rsp,%rdi
  4016d5:	e8 30 02 00 00       	callq  40190a <Gets>
  4016da:	b8 01 00 00 00       	mov    $0x1,%eax
  4016df:	48 83 c4 38          	add    $0x38,%rsp
  4016e3:	c3                   	retq   

00000000004016e4 <touch1>:
  4016e4:	48 83 ec 08          	sub    $0x8,%rsp
  4016e8:	c7 05 0a 2e 20 00 01 	movl   $0x1,0x202e0a(%rip)        # 6044fc <vlevel>
  4016ef:	00 00 00 
  4016f2:	bf 70 2f 40 00       	mov    $0x402f70,%edi
  4016f7:	e8 54 f5 ff ff       	callq  400c50 <puts@plt>
  4016fc:	bf 01 00 00 00       	mov    $0x1,%edi
  401701:	e8 f3 03 00 00       	callq  401af9 <validate>
  401706:	bf 00 00 00 00       	mov    $0x0,%edi
  40170b:	e8 e0 f6 ff ff       	callq  400df0 <exit@plt>

0000000000401710 <touch2>:
  401710:	48 83 ec 08          	sub    $0x8,%rsp
  401714:	89 fe                	mov    %edi,%esi
  401716:	c7 05 dc 2d 20 00 02 	movl   $0x2,0x202ddc(%rip)        # 6044fc <vlevel>
  40171d:	00 00 00 
  401720:	3b 3d de 2d 20 00    	cmp    0x202dde(%rip),%edi        # 604504 <cookie>
  401726:	75 1b                	jne    401743 <touch2+0x33>
  401728:	bf 98 2f 40 00       	mov    $0x402f98,%edi
  40172d:	b8 00 00 00 00       	mov    $0x0,%eax
  401732:	e8 49 f5 ff ff       	callq  400c80 <printf@plt>
  401737:	bf 02 00 00 00       	mov    $0x2,%edi
  40173c:	e8 b8 03 00 00       	callq  401af9 <validate>
  401741:	eb 19                	jmp    40175c <touch2+0x4c>
  401743:	bf c0 2f 40 00       	mov    $0x402fc0,%edi
  401748:	b8 00 00 00 00       	mov    $0x0,%eax
  40174d:	e8 2e f5 ff ff       	callq  400c80 <printf@plt>
  401752:	bf 02 00 00 00       	mov    $0x2,%edi
  401757:	e8 4f 04 00 00       	callq  401bab <fail>
  40175c:	bf 00 00 00 00       	mov    $0x0,%edi
  401761:	e8 8a f6 ff ff       	callq  400df0 <exit@plt>

0000000000401766 <hexmatch>:
  401766:	41 54                	push   %r12
  401768:	55                   	push   %rbp
  401769:	53                   	push   %rbx
  40176a:	48 83 ec 70          	sub    $0x70,%rsp
  40176e:	41 89 fc             	mov    %edi,%r12d
  401771:	48 89 f5             	mov    %rsi,%rbp
  401774:	e8 d7 f5 ff ff       	callq  400d50 <random@plt>
  401779:	48 89 c1             	mov    %rax,%rcx
  40177c:	48 ba 0b d7 a3 70 3d 	movabs $0xa3d70a3d70a3d70b,%rdx
  401783:	0a d7 a3 
  401786:	48 f7 ea             	imul   %rdx
  401789:	48 8d 04 0a          	lea    (%rdx,%rcx,1),%rax
  40178d:	48 c1 f8 06          	sar    $0x6,%rax
  401791:	48 89 ce             	mov    %rcx,%rsi
  401794:	48 c1 fe 3f          	sar    $0x3f,%rsi
  401798:	48 29 f0             	sub    %rsi,%rax
  40179b:	48 8d 04 80          	lea    (%rax,%rax,4),%rax
  40179f:	48 8d 04 80          	lea    (%rax,%rax,4),%rax
  4017a3:	48 c1 e0 02          	shl    $0x2,%rax
  4017a7:	48 29 c1             	sub    %rax,%rcx
  4017aa:	48 8d 1c 0c          	lea    (%rsp,%rcx,1),%rbx
  4017ae:	44 89 e2             	mov    %r12d,%edx
  4017b1:	be 8d 2f 40 00       	mov    $0x402f8d,%esi
  4017b6:	48 89 df             	mov    %rbx,%rdi
  4017b9:	b8 00 00 00 00       	mov    $0x0,%eax
  4017be:	e8 1d f6 ff ff       	callq  400de0 <sprintf@plt>
  4017c3:	ba 09 00 00 00       	mov    $0x9,%edx
  4017c8:	48 89 de             	mov    %rbx,%rsi
  4017cb:	48 89 ef             	mov    %rbp,%rdi
  4017ce:	e8 5d f4 ff ff       	callq  400c30 <strncmp@plt>
  4017d3:	85 c0                	test   %eax,%eax
  4017d5:	0f 94 c0             	sete   %al
  4017d8:	0f b6 c0             	movzbl %al,%eax
  4017db:	48 83 c4 70          	add    $0x70,%rsp
  4017df:	5b                   	pop    %rbx
  4017e0:	5d                   	pop    %rbp
  4017e1:	41 5c                	pop    %r12
  4017e3:	c3                   	retq   

00000000004017e4 <touch3>:
  4017e4:	53                   	push   %rbx
  4017e5:	48 89 fb             	mov    %rdi,%rbx
  4017e8:	c7 05 0a 2d 20 00 03 	movl   $0x3,0x202d0a(%rip)        # 6044fc <vlevel>
  4017ef:	00 00 00 
  4017f2:	48 89 fe             	mov    %rdi,%rsi
  4017f5:	8b 3d 09 2d 20 00    	mov    0x202d09(%rip),%edi        # 604504 <cookie>
  4017fb:	e8 66 ff ff ff       	callq  401766 <hexmatch>
  401800:	85 c0                	test   %eax,%eax
  401802:	74 1e                	je     401822 <touch3+0x3e>
  401804:	48 89 de             	mov    %rbx,%rsi
  401807:	bf e8 2f 40 00       	mov    $0x402fe8,%edi
  40180c:	b8 00 00 00 00       	mov    $0x0,%eax
  401811:	e8 6a f4 ff ff       	callq  400c80 <printf@plt>
  401816:	bf 03 00 00 00       	mov    $0x3,%edi
  40181b:	e8 d9 02 00 00       	callq  401af9 <validate>
  401820:	eb 1c                	jmp    40183e <touch3+0x5a>
  401822:	48 89 de             	mov    %rbx,%rsi
  401825:	bf 10 30 40 00       	mov    $0x403010,%edi
  40182a:	b8 00 00 00 00       	mov    $0x0,%eax
  40182f:	e8 4c f4 ff ff       	callq  400c80 <printf@plt>
  401834:	bf 03 00 00 00       	mov    $0x3,%edi
  401839:	e8 6d 03 00 00       	callq  401bab <fail>
  40183e:	bf 00 00 00 00       	mov    $0x0,%edi
  401843:	e8 a8 f5 ff ff       	callq  400df0 <exit@plt>

0000000000401848 <test>:
  401848:	48 83 ec 08          	sub    $0x8,%rsp
  40184c:	b8 00 00 00 00       	mov    $0x0,%eax
  401851:	e8 78 fe ff ff       	callq  4016ce <getbuf>
  401856:	89 c6                	mov    %eax,%esi
  401858:	bf 38 30 40 00       	mov    $0x403038,%edi
  40185d:	b8 00 00 00 00       	mov    $0x0,%eax
  401862:	e8 19 f4 ff ff       	callq  400c80 <printf@plt>
  401867:	48 83 c4 08          	add    $0x8,%rsp
  40186b:	c3                   	retq   
  40186c:	0f 1f 40 00          	nopl   0x0(%rax)

0000000000401870 <save_char>:
  401870:	8b 05 ae 38 20 00    	mov    0x2038ae(%rip),%eax        # 605124 <gets_cnt>
  401876:	3d ff 03 00 00       	cmp    $0x3ff,%eax
  40187b:	7f 49                	jg     4018c6 <save_char+0x56>
  40187d:	8d 14 40             	lea    (%rax,%rax,2),%edx
  401880:	89 f9                	mov    %edi,%ecx
  401882:	c0 e9 04             	shr    $0x4,%cl
  401885:	83 e1 0f             	and    $0xf,%ecx
  401888:	0f b6 b1 60 33 40 00 	movzbl 0x403360(%rcx),%esi
  40188f:	48 63 ca             	movslq %edx,%rcx
  401892:	40 88 b1 20 45 60 00 	mov    %sil,0x604520(%rcx)
  401899:	8d 4a 01             	lea    0x1(%rdx),%ecx
  40189c:	83 e7 0f             	and    $0xf,%edi
  40189f:	0f b6 b7 60 33 40 00 	movzbl 0x403360(%rdi),%esi
  4018a6:	48 63 c9             	movslq %ecx,%rcx
  4018a9:	40 88 b1 20 45 60 00 	mov    %sil,0x604520(%rcx)
  4018b0:	83 c2 02             	add    $0x2,%edx
  4018b3:	48 63 d2             	movslq %edx,%rdx
  4018b6:	c6 82 20 45 60 00 20 	movb   $0x20,0x604520(%rdx)
  4018bd:	83 c0 01             	add    $0x1,%eax
  4018c0:	89 05 5e 38 20 00    	mov    %eax,0x20385e(%rip)        # 605124 <gets_cnt>
  4018c6:	f3 c3                	repz retq 

00000000004018c8 <save_term>:
  4018c8:	8b 05 56 38 20 00    	mov    0x203856(%rip),%eax        # 605124 <gets_cnt>
  4018ce:	8d 04 40             	lea    (%rax,%rax,2),%eax
  4018d1:	48 98                	cltq   
  4018d3:	c6 80 20 45 60 00 00 	movb   $0x0,0x604520(%rax)
  4018da:	c3                   	retq   

00000000004018db <check_fail>:
  4018db:	48 83 ec 08          	sub    $0x8,%rsp
  4018df:	0f be 35 42 38 20 00 	movsbl 0x203842(%rip),%esi        # 605128 <target_prefix>
  4018e6:	b9 20 45 60 00       	mov    $0x604520,%ecx
  4018eb:	8b 15 07 2c 20 00    	mov    0x202c07(%rip),%edx        # 6044f8 <check_level>
  4018f1:	bf 5b 30 40 00       	mov    $0x40305b,%edi
  4018f6:	b8 00 00 00 00       	mov    $0x0,%eax
  4018fb:	e8 80 f3 ff ff       	callq  400c80 <printf@plt>
  401900:	bf 01 00 00 00       	mov    $0x1,%edi
  401905:	e8 e6 f4 ff ff       	callq  400df0 <exit@plt>

000000000040190a <Gets>:
  40190a:	41 54                	push   %r12
  40190c:	55                   	push   %rbp
  40190d:	53                   	push   %rbx
  40190e:	49 89 fc             	mov    %rdi,%r12
  401911:	c7 05 09 38 20 00 00 	movl   $0x0,0x203809(%rip)        # 605124 <gets_cnt>
  401918:	00 00 00 
  40191b:	48 89 fb             	mov    %rdi,%rbx
  40191e:	eb 11                	jmp    401931 <Gets+0x27>
  401920:	48 8d 6b 01          	lea    0x1(%rbx),%rbp
  401924:	88 03                	mov    %al,(%rbx)
  401926:	0f b6 f8             	movzbl %al,%edi
  401929:	e8 42 ff ff ff       	callq  401870 <save_char>
  40192e:	48 89 eb             	mov    %rbp,%rbx
  401931:	48 8b 3d b8 2b 20 00 	mov    0x202bb8(%rip),%rdi        # 6044f0 <infile>
  401938:	e8 23 f4 ff ff       	callq  400d60 <_IO_getc@plt>
  40193d:	83 f8 ff             	cmp    $0xffffffff,%eax
  401940:	74 05                	je     401947 <Gets+0x3d>
  401942:	83 f8 0a             	cmp    $0xa,%eax
  401945:	75 d9                	jne    401920 <Gets+0x16>
  401947:	c6 03 00             	movb   $0x0,(%rbx)
  40194a:	b8 00 00 00 00       	mov    $0x0,%eax
  40194f:	e8 74 ff ff ff       	callq  4018c8 <save_term>
  401954:	4c 89 e0             	mov    %r12,%rax
  401957:	5b                   	pop    %rbx
  401958:	5d                   	pop    %rbp
  401959:	41 5c                	pop    %r12
  40195b:	c3                   	retq   

000000000040195c <notify_server>:
  40195c:	83 3d a5 2b 20 00 00 	cmpl   $0x0,0x202ba5(%rip)        # 604508 <is_checker>
  401963:	0f 85 8e 01 00 00    	jne    401af7 <notify_server+0x19b>
  401969:	53                   	push   %rbx
  40196a:	48 81 ec 10 40 00 00 	sub    $0x4010,%rsp
  401971:	89 fb                	mov    %edi,%ebx
  401973:	8b 05 ab 37 20 00    	mov    0x2037ab(%rip),%eax        # 605124 <gets_cnt>
  401979:	83 c0 64             	add    $0x64,%eax
  40197c:	3d 00 20 00 00       	cmp    $0x2000,%eax
  401981:	7e 19                	jle    40199c <notify_server+0x40>
  401983:	bf 90 31 40 00       	mov    $0x403190,%edi
  401988:	b8 00 00 00 00       	mov    $0x0,%eax
  40198d:	e8 ee f2 ff ff       	callq  400c80 <printf@plt>
  401992:	bf 01 00 00 00       	mov    $0x1,%edi
  401997:	e8 54 f4 ff ff       	callq  400df0 <exit@plt>
  40199c:	44 0f be 0d 84 37 20 	movsbl 0x203784(%rip),%r9d        # 605128 <target_prefix>
  4019a3:	00 
  4019a4:	83 3d fd 2a 20 00 00 	cmpl   $0x0,0x202afd(%rip)        # 6044a8 <notify>
  4019ab:	74 09                	je     4019b6 <notify_server+0x5a>
  4019ad:	44 8b 05 4c 2b 20 00 	mov    0x202b4c(%rip),%r8d        # 604500 <authkey>
  4019b4:	eb 06                	jmp    4019bc <notify_server+0x60>
  4019b6:	41 b8 ff ff ff ff    	mov    $0xffffffff,%r8d
  4019bc:	85 db                	test   %ebx,%ebx
  4019be:	74 07                	je     4019c7 <notify_server+0x6b>
  4019c0:	b9 71 30 40 00       	mov    $0x403071,%ecx
  4019c5:	eb 05                	jmp    4019cc <notify_server+0x70>
  4019c7:	b9 76 30 40 00       	mov    $0x403076,%ecx
  4019cc:	48 c7 44 24 08 20 45 	movq   $0x604520,0x8(%rsp)
  4019d3:	60 00 
  4019d5:	89 34 24             	mov    %esi,(%rsp)
  4019d8:	8b 15 8a 27 20 00    	mov    0x20278a(%rip),%edx        # 604168 <target_id>
  4019de:	be 7b 30 40 00       	mov    $0x40307b,%esi
  4019e3:	48 8d bc 24 10 20 00 	lea    0x2010(%rsp),%rdi
  4019ea:	00 
  4019eb:	b8 00 00 00 00       	mov    $0x0,%eax
  4019f0:	e8 eb f3 ff ff       	callq  400de0 <sprintf@plt>
  4019f5:	83 3d ac 2a 20 00 00 	cmpl   $0x0,0x202aac(%rip)        # 6044a8 <notify>
  4019fc:	74 78                	je     401a76 <notify_server+0x11a>
  4019fe:	85 db                	test   %ebx,%ebx
  401a00:	74 68                	je     401a6a <notify_server+0x10e>
  401a02:	4c 8d 4c 24 10       	lea    0x10(%rsp),%r9
  401a07:	41 b8 00 00 00 00    	mov    $0x0,%r8d
  401a0d:	48 8d 8c 24 10 20 00 	lea    0x2010(%rsp),%rcx
  401a14:	00 
  401a15:	48 8b 15 54 27 20 00 	mov    0x202754(%rip),%rdx        # 604170 <lab>
  401a1c:	48 8b 35 55 27 20 00 	mov    0x202755(%rip),%rsi        # 604178 <course>
  401a23:	48 8b 3d 36 27 20 00 	mov    0x202736(%rip),%rdi        # 604160 <user_id>
  401a2a:	e8 94 0f 00 00       	callq  4029c3 <driver_post>
  401a2f:	85 c0                	test   %eax,%eax
  401a31:	79 1e                	jns    401a51 <notify_server+0xf5>
  401a33:	48 8d 74 24 10       	lea    0x10(%rsp),%rsi
  401a38:	bf 97 30 40 00       	mov    $0x403097,%edi
  401a3d:	b8 00 00 00 00       	mov    $0x0,%eax
  401a42:	e8 39 f2 ff ff       	callq  400c80 <printf@plt>
  401a47:	bf 01 00 00 00       	mov    $0x1,%edi
  401a4c:	e8 9f f3 ff ff       	callq  400df0 <exit@plt>
  401a51:	bf c0 31 40 00       	mov    $0x4031c0,%edi
  401a56:	e8 f5 f1 ff ff       	callq  400c50 <puts@plt>
  401a5b:	bf a3 30 40 00       	mov    $0x4030a3,%edi
  401a60:	e8 eb f1 ff ff       	callq  400c50 <puts@plt>
  401a65:	e9 85 00 00 00       	jmpq   401aef <notify_server+0x193>
  401a6a:	bf ad 30 40 00       	mov    $0x4030ad,%edi
  401a6f:	e8 dc f1 ff ff       	callq  400c50 <puts@plt>
  401a74:	eb 79                	jmp    401aef <notify_server+0x193>
  401a76:	85 db                	test   %ebx,%ebx
  401a78:	74 08                	je     401a82 <notify_server+0x126>
  401a7a:	be 71 30 40 00       	mov    $0x403071,%esi
  401a7f:	90                   	nop
  401a80:	eb 05                	jmp    401a87 <notify_server+0x12b>
  401a82:	be 76 30 40 00       	mov    $0x403076,%esi
  401a87:	bf f8 31 40 00       	mov    $0x4031f8,%edi
  401a8c:	b8 00 00 00 00       	mov    $0x0,%eax
  401a91:	e8 ea f1 ff ff       	callq  400c80 <printf@plt>
  401a96:	48 8b 35 c3 26 20 00 	mov    0x2026c3(%rip),%rsi        # 604160 <user_id>
  401a9d:	bf b4 30 40 00       	mov    $0x4030b4,%edi
  401aa2:	b8 00 00 00 00       	mov    $0x0,%eax
  401aa7:	e8 d4 f1 ff ff       	callq  400c80 <printf@plt>
  401aac:	48 8b 35 c5 26 20 00 	mov    0x2026c5(%rip),%rsi        # 604178 <course>
  401ab3:	bf c1 30 40 00       	mov    $0x4030c1,%edi
  401ab8:	b8 00 00 00 00       	mov    $0x0,%eax
  401abd:	e8 be f1 ff ff       	callq  400c80 <printf@plt>
  401ac2:	48 8b 35 a7 26 20 00 	mov    0x2026a7(%rip),%rsi        # 604170 <lab>
  401ac9:	bf cd 30 40 00       	mov    $0x4030cd,%edi
  401ace:	b8 00 00 00 00       	mov    $0x0,%eax
  401ad3:	e8 a8 f1 ff ff       	callq  400c80 <printf@plt>
  401ad8:	48 8d b4 24 10 20 00 	lea    0x2010(%rsp),%rsi
  401adf:	00 
  401ae0:	bf d6 30 40 00       	mov    $0x4030d6,%edi
  401ae5:	b8 00 00 00 00       	mov    $0x0,%eax
  401aea:	e8 91 f1 ff ff       	callq  400c80 <printf@plt>
  401aef:	48 81 c4 10 40 00 00 	add    $0x4010,%rsp
  401af6:	5b                   	pop    %rbx
  401af7:	f3 c3                	repz retq 

0000000000401af9 <validate>:
  401af9:	53                   	push   %rbx
  401afa:	89 fb                	mov    %edi,%ebx
  401afc:	83 3d 05 2a 20 00 00 	cmpl   $0x0,0x202a05(%rip)        # 604508 <is_checker>
  401b03:	74 60                	je     401b65 <validate+0x6c>
  401b05:	39 3d f1 29 20 00    	cmp    %edi,0x2029f1(%rip)        # 6044fc <vlevel>
  401b0b:	74 14                	je     401b21 <validate+0x28>
  401b0d:	bf e2 30 40 00       	mov    $0x4030e2,%edi
  401b12:	e8 39 f1 ff ff       	callq  400c50 <puts@plt>
  401b17:	b8 00 00 00 00       	mov    $0x0,%eax
  401b1c:	e8 ba fd ff ff       	callq  4018db <check_fail>
  401b21:	8b 35 d1 29 20 00    	mov    0x2029d1(%rip),%esi        # 6044f8 <check_level>
  401b27:	39 fe                	cmp    %edi,%esi
  401b29:	74 1b                	je     401b46 <validate+0x4d>
  401b2b:	89 fa                	mov    %edi,%edx
  401b2d:	bf 20 32 40 00       	mov    $0x403220,%edi
  401b32:	b8 00 00 00 00       	mov    $0x0,%eax
  401b37:	e8 44 f1 ff ff       	callq  400c80 <printf@plt>
  401b3c:	b8 00 00 00 00       	mov    $0x0,%eax
  401b41:	e8 95 fd ff ff       	callq  4018db <check_fail>
  401b46:	0f be 35 db 35 20 00 	movsbl 0x2035db(%rip),%esi        # 605128 <target_prefix>
  401b4d:	b9 20 45 60 00       	mov    $0x604520,%ecx
  401b52:	89 fa                	mov    %edi,%edx
  401b54:	bf 00 31 40 00       	mov    $0x403100,%edi
  401b59:	b8 00 00 00 00       	mov    $0x0,%eax
  401b5e:	e8 1d f1 ff ff       	callq  400c80 <printf@plt>
  401b63:	eb 44                	jmp    401ba9 <validate+0xb0>
  401b65:	39 3d 91 29 20 00    	cmp    %edi,0x202991(%rip)        # 6044fc <vlevel>
  401b6b:	74 18                	je     401b85 <validate+0x8c>
  401b6d:	bf e2 30 40 00       	mov    $0x4030e2,%edi
  401b72:	e8 d9 f0 ff ff       	callq  400c50 <puts@plt>
  401b77:	89 de                	mov    %ebx,%esi
  401b79:	bf 00 00 00 00       	mov    $0x0,%edi
  401b7e:	e8 d9 fd ff ff       	callq  40195c <notify_server>
  401b83:	eb 24                	jmp    401ba9 <validate+0xb0>
  401b85:	0f be 15 9c 35 20 00 	movsbl 0x20359c(%rip),%edx        # 605128 <target_prefix>
  401b8c:	89 fe                	mov    %edi,%esi
  401b8e:	bf 48 32 40 00       	mov    $0x403248,%edi
  401b93:	b8 00 00 00 00       	mov    $0x0,%eax
  401b98:	e8 e3 f0 ff ff       	callq  400c80 <printf@plt>
  401b9d:	89 de                	mov    %ebx,%esi
  401b9f:	bf 01 00 00 00       	mov    $0x1,%edi
  401ba4:	e8 b3 fd ff ff       	callq  40195c <notify_server>
  401ba9:	5b                   	pop    %rbx
  401baa:	c3                   	retq   

0000000000401bab <fail>:
  401bab:	48 83 ec 08          	sub    $0x8,%rsp
  401baf:	83 3d 52 29 20 00 00 	cmpl   $0x0,0x202952(%rip)        # 604508 <is_checker>
  401bb6:	74 0a                	je     401bc2 <fail+0x17>
  401bb8:	b8 00 00 00 00       	mov    $0x0,%eax
  401bbd:	e8 19 fd ff ff       	callq  4018db <check_fail>
  401bc2:	89 fe                	mov    %edi,%esi
  401bc4:	bf 00 00 00 00       	mov    $0x0,%edi
  401bc9:	e8 8e fd ff ff       	callq  40195c <notify_server>
  401bce:	48 83 c4 08          	add    $0x8,%rsp
  401bd2:	c3                   	retq   

0000000000401bd3 <bushandler>:
  401bd3:	48 83 ec 08          	sub    $0x8,%rsp
  401bd7:	83 3d 2a 29 20 00 00 	cmpl   $0x0,0x20292a(%rip)        # 604508 <is_checker>
  401bde:	74 14                	je     401bf4 <bushandler+0x21>
  401be0:	bf 15 31 40 00       	mov    $0x403115,%edi
  401be5:	e8 66 f0 ff ff       	callq  400c50 <puts@plt>
  401bea:	b8 00 00 00 00       	mov    $0x0,%eax
  401bef:	e8 e7 fc ff ff       	callq  4018db <check_fail>
  401bf4:	bf 80 32 40 00       	mov    $0x403280,%edi
  401bf9:	e8 52 f0 ff ff       	callq  400c50 <puts@plt>
  401bfe:	bf 1f 31 40 00       	mov    $0x40311f,%edi
  401c03:	e8 48 f0 ff ff       	callq  400c50 <puts@plt>
  401c08:	be 00 00 00 00       	mov    $0x0,%esi
  401c0d:	bf 00 00 00 00       	mov    $0x0,%edi
  401c12:	e8 45 fd ff ff       	callq  40195c <notify_server>
  401c17:	bf 01 00 00 00       	mov    $0x1,%edi
  401c1c:	e8 cf f1 ff ff       	callq  400df0 <exit@plt>

0000000000401c21 <seghandler>:
  401c21:	48 83 ec 08          	sub    $0x8,%rsp
  401c25:	83 3d dc 28 20 00 00 	cmpl   $0x0,0x2028dc(%rip)        # 604508 <is_checker>
  401c2c:	74 14                	je     401c42 <seghandler+0x21>
  401c2e:	bf 35 31 40 00       	mov    $0x403135,%edi
  401c33:	e8 18 f0 ff ff       	callq  400c50 <puts@plt>
  401c38:	b8 00 00 00 00       	mov    $0x0,%eax
  401c3d:	e8 99 fc ff ff       	callq  4018db <check_fail>
  401c42:	bf a0 32 40 00       	mov    $0x4032a0,%edi
  401c47:	e8 04 f0 ff ff       	callq  400c50 <puts@plt>
  401c4c:	bf 1f 31 40 00       	mov    $0x40311f,%edi
  401c51:	e8 fa ef ff ff       	callq  400c50 <puts@plt>
  401c56:	be 00 00 00 00       	mov    $0x0,%esi
  401c5b:	bf 00 00 00 00       	mov    $0x0,%edi
  401c60:	e8 f7 fc ff ff       	callq  40195c <notify_server>
  401c65:	bf 01 00 00 00       	mov    $0x1,%edi
  401c6a:	e8 81 f1 ff ff       	callq  400df0 <exit@plt>

0000000000401c6f <illegalhandler>:
  401c6f:	48 83 ec 08          	sub    $0x8,%rsp
  401c73:	83 3d 8e 28 20 00 00 	cmpl   $0x0,0x20288e(%rip)        # 604508 <is_checker>
  401c7a:	74 14                	je     401c90 <illegalhandler+0x21>
  401c7c:	bf 48 31 40 00       	mov    $0x403148,%edi
  401c81:	e8 ca ef ff ff       	callq  400c50 <puts@plt>
  401c86:	b8 00 00 00 00       	mov    $0x0,%eax
  401c8b:	e8 4b fc ff ff       	callq  4018db <check_fail>
  401c90:	bf c8 32 40 00       	mov    $0x4032c8,%edi
  401c95:	e8 b6 ef ff ff       	callq  400c50 <puts@plt>
  401c9a:	bf 1f 31 40 00       	mov    $0x40311f,%edi
  401c9f:	e8 ac ef ff ff       	callq  400c50 <puts@plt>
  401ca4:	be 00 00 00 00       	mov    $0x0,%esi
  401ca9:	bf 00 00 00 00       	mov    $0x0,%edi
  401cae:	e8 a9 fc ff ff       	callq  40195c <notify_server>
  401cb3:	bf 01 00 00 00       	mov    $0x1,%edi
  401cb8:	e8 33 f1 ff ff       	callq  400df0 <exit@plt>

0000000000401cbd <sigalrmhandler>:
  401cbd:	48 83 ec 08          	sub    $0x8,%rsp
  401cc1:	83 3d 40 28 20 00 00 	cmpl   $0x0,0x202840(%rip)        # 604508 <is_checker>
  401cc8:	74 14                	je     401cde <sigalrmhandler+0x21>
  401cca:	bf 5c 31 40 00       	mov    $0x40315c,%edi
  401ccf:	e8 7c ef ff ff       	callq  400c50 <puts@plt>
  401cd4:	b8 00 00 00 00       	mov    $0x0,%eax
  401cd9:	e8 fd fb ff ff       	callq  4018db <check_fail>
  401cde:	be 05 00 00 00       	mov    $0x5,%esi
  401ce3:	bf f8 32 40 00       	mov    $0x4032f8,%edi
  401ce8:	b8 00 00 00 00       	mov    $0x0,%eax
  401ced:	e8 8e ef ff ff       	callq  400c80 <printf@plt>
  401cf2:	be 00 00 00 00       	mov    $0x0,%esi
  401cf7:	bf 00 00 00 00       	mov    $0x0,%edi
  401cfc:	e8 5b fc ff ff       	callq  40195c <notify_server>
  401d01:	bf 01 00 00 00       	mov    $0x1,%edi
  401d06:	e8 e5 f0 ff ff       	callq  400df0 <exit@plt>

0000000000401d0b <launch>:
  401d0b:	55                   	push   %rbp
  401d0c:	48 89 e5             	mov    %rsp,%rbp
  401d0f:	48 89 fa             	mov    %rdi,%rdx
  401d12:	48 8d 47 1e          	lea    0x1e(%rdi),%rax
  401d16:	48 83 e0 f0          	and    $0xfffffffffffffff0,%rax
  401d1a:	48 29 c4             	sub    %rax,%rsp
  401d1d:	48 8d 7c 24 0f       	lea    0xf(%rsp),%rdi
  401d22:	48 83 e7 f0          	and    $0xfffffffffffffff0,%rdi
  401d26:	be f4 00 00 00       	mov    $0xf4,%esi
  401d2b:	e8 60 ef ff ff       	callq  400c90 <memset@plt>
  401d30:	48 8b 05 89 27 20 00 	mov    0x202789(%rip),%rax        # 6044c0 <stdin@@GLIBC_2.2.5>
  401d37:	48 39 05 b2 27 20 00 	cmp    %rax,0x2027b2(%rip)        # 6044f0 <infile>
  401d3e:	75 0f                	jne    401d4f <launch+0x44>
  401d40:	bf 64 31 40 00       	mov    $0x403164,%edi
  401d45:	b8 00 00 00 00       	mov    $0x0,%eax
  401d4a:	e8 31 ef ff ff       	callq  400c80 <printf@plt>
  401d4f:	c7 05 a3 27 20 00 00 	movl   $0x0,0x2027a3(%rip)        # 6044fc <vlevel>
  401d56:	00 00 00 
  401d59:	b8 00 00 00 00       	mov    $0x0,%eax
  401d5e:	e8 e5 fa ff ff       	callq  401848 <test>
  401d63:	83 3d 9e 27 20 00 00 	cmpl   $0x0,0x20279e(%rip)        # 604508 <is_checker>
  401d6a:	74 14                	je     401d80 <launch+0x75>
  401d6c:	bf 71 31 40 00       	mov    $0x403171,%edi
  401d71:	e8 da ee ff ff       	callq  400c50 <puts@plt>
  401d76:	b8 00 00 00 00       	mov    $0x0,%eax
  401d7b:	e8 5b fb ff ff       	callq  4018db <check_fail>
  401d80:	bf 7c 31 40 00       	mov    $0x40317c,%edi
  401d85:	e8 c6 ee ff ff       	callq  400c50 <puts@plt>
  401d8a:	c9                   	leaveq 
  401d8b:	c3                   	retq   

0000000000401d8c <stable_launch>:
  401d8c:	53                   	push   %rbx
  401d8d:	48 89 3d 54 27 20 00 	mov    %rdi,0x202754(%rip)        # 6044e8 <global_offset>
  401d94:	41 b9 00 00 00 00    	mov    $0x0,%r9d
  401d9a:	41 b8 00 00 00 00    	mov    $0x0,%r8d
  401da0:	b9 32 01 00 00       	mov    $0x132,%ecx
  401da5:	ba 07 00 00 00       	mov    $0x7,%edx
  401daa:	be 00 00 10 00       	mov    $0x100000,%esi
  401daf:	bf 00 60 58 55       	mov    $0x55586000,%edi
  401db4:	e8 b7 ee ff ff       	callq  400c70 <mmap@plt>
  401db9:	48 89 c3             	mov    %rax,%rbx
  401dbc:	48 3d 00 60 58 55    	cmp    $0x55586000,%rax
  401dc2:	74 32                	je     401df6 <stable_launch+0x6a>
  401dc4:	be 00 00 10 00       	mov    $0x100000,%esi
  401dc9:	48 89 c7             	mov    %rax,%rdi
  401dcc:	e8 af ef ff ff       	callq  400d80 <munmap@plt>
  401dd1:	ba 00 60 58 55       	mov    $0x55586000,%edx
  401dd6:	be 30 33 40 00       	mov    $0x403330,%esi
  401ddb:	48 8b 3d ee 26 20 00 	mov    0x2026ee(%rip),%rdi        # 6044d0 <stderr@@GLIBC_2.2.5>
  401de2:	b8 00 00 00 00       	mov    $0x0,%eax
  401de7:	e8 14 ef ff ff       	callq  400d00 <fprintf@plt>
  401dec:	bf 01 00 00 00       	mov    $0x1,%edi
  401df1:	e8 fa ef ff ff       	callq  400df0 <exit@plt>
  401df6:	48 8d 90 f8 ff 0f 00 	lea    0xffff8(%rax),%rdx
  401dfd:	48 89 15 2c 33 20 00 	mov    %rdx,0x20332c(%rip)        # 605130 <stack_top>
  401e04:	48 89 e0             	mov    %rsp,%rax
  401e07:	48 89 d4             	mov    %rdx,%rsp
  401e0a:	48 89 c2             	mov    %rax,%rdx
  401e0d:	48 89 15 cc 26 20 00 	mov    %rdx,0x2026cc(%rip)        # 6044e0 <global_save_stack>
  401e14:	48 8b 3d cd 26 20 00 	mov    0x2026cd(%rip),%rdi        # 6044e8 <global_offset>
  401e1b:	e8 eb fe ff ff       	callq  401d0b <launch>
  401e20:	48 8b 05 b9 26 20 00 	mov    0x2026b9(%rip),%rax        # 6044e0 <global_save_stack>
  401e27:	48 89 c4             	mov    %rax,%rsp
  401e2a:	be 00 00 10 00       	mov    $0x100000,%esi
  401e2f:	48 89 df             	mov    %rbx,%rdi
  401e32:	e8 49 ef ff ff       	callq  400d80 <munmap@plt>
  401e37:	5b                   	pop    %rbx
  401e38:	c3                   	retq   
  401e39:	0f 1f 80 00 00 00 00 	nopl   0x0(%rax)

0000000000401e40 <rio_readinitb>:
  401e40:	89 37                	mov    %esi,(%rdi)
  401e42:	c7 47 04 00 00 00 00 	movl   $0x0,0x4(%rdi)
  401e49:	48 8d 47 10          	lea    0x10(%rdi),%rax
  401e4d:	48 89 47 08          	mov    %rax,0x8(%rdi)
  401e51:	c3                   	retq   

0000000000401e52 <sigalrm_handler>:
  401e52:	48 83 ec 08          	sub    $0x8,%rsp
  401e56:	ba 00 00 00 00       	mov    $0x0,%edx
  401e5b:	be 70 33 40 00       	mov    $0x403370,%esi
  401e60:	48 8b 3d 69 26 20 00 	mov    0x202669(%rip),%rdi        # 6044d0 <stderr@@GLIBC_2.2.5>
  401e67:	b8 00 00 00 00       	mov    $0x0,%eax
  401e6c:	e8 8f ee ff ff       	callq  400d00 <fprintf@plt>
  401e71:	bf 01 00 00 00       	mov    $0x1,%edi
  401e76:	e8 75 ef ff ff       	callq  400df0 <exit@plt>

0000000000401e7b <urlencode>:
  401e7b:	41 54                	push   %r12
  401e7d:	55                   	push   %rbp
  401e7e:	53                   	push   %rbx
  401e7f:	48 83 ec 10          	sub    $0x10,%rsp
  401e83:	48 89 fb             	mov    %rdi,%rbx
  401e86:	48 89 f5             	mov    %rsi,%rbp
  401e89:	b8 00 00 00 00       	mov    $0x0,%eax
  401e8e:	48 c7 c1 ff ff ff ff 	mov    $0xffffffffffffffff,%rcx
  401e95:	f2 ae                	repnz scas %es:(%rdi),%al
  401e97:	48 f7 d1             	not    %rcx
  401e9a:	8d 41 ff             	lea    -0x1(%rcx),%eax
  401e9d:	e9 93 00 00 00       	jmpq   401f35 <urlencode+0xba>
  401ea2:	0f b6 13             	movzbl (%rbx),%edx
  401ea5:	80 fa 2a             	cmp    $0x2a,%dl
  401ea8:	0f 94 c1             	sete   %cl
  401eab:	80 fa 2d             	cmp    $0x2d,%dl
  401eae:	0f 94 c0             	sete   %al
  401eb1:	08 c1                	or     %al,%cl
  401eb3:	75 1f                	jne    401ed4 <urlencode+0x59>
  401eb5:	80 fa 2e             	cmp    $0x2e,%dl
  401eb8:	74 1a                	je     401ed4 <urlencode+0x59>
  401eba:	80 fa 5f             	cmp    $0x5f,%dl
  401ebd:	74 15                	je     401ed4 <urlencode+0x59>
  401ebf:	8d 42 d0             	lea    -0x30(%rdx),%eax
  401ec2:	3c 09                	cmp    $0x9,%al
  401ec4:	76 0e                	jbe    401ed4 <urlencode+0x59>
  401ec6:	8d 42 bf             	lea    -0x41(%rdx),%eax
  401ec9:	3c 19                	cmp    $0x19,%al
  401ecb:	76 07                	jbe    401ed4 <urlencode+0x59>
  401ecd:	8d 42 9f             	lea    -0x61(%rdx),%eax
  401ed0:	3c 19                	cmp    $0x19,%al
  401ed2:	77 09                	ja     401edd <urlencode+0x62>
  401ed4:	88 55 00             	mov    %dl,0x0(%rbp)
  401ed7:	48 8d 6d 01          	lea    0x1(%rbp),%rbp
  401edb:	eb 51                	jmp    401f2e <urlencode+0xb3>
  401edd:	80 fa 20             	cmp    $0x20,%dl
  401ee0:	75 0a                	jne    401eec <urlencode+0x71>
  401ee2:	c6 45 00 2b          	movb   $0x2b,0x0(%rbp)
  401ee6:	48 8d 6d 01          	lea    0x1(%rbp),%rbp
  401eea:	eb 42                	jmp    401f2e <urlencode+0xb3>
  401eec:	8d 42 e0             	lea    -0x20(%rdx),%eax
  401eef:	3c 5f                	cmp    $0x5f,%al
  401ef1:	0f 96 c1             	setbe  %cl
  401ef4:	80 fa 09             	cmp    $0x9,%dl
  401ef7:	0f 94 c0             	sete   %al
  401efa:	08 c1                	or     %al,%cl
  401efc:	74 45                	je     401f43 <urlencode+0xc8>
  401efe:	0f b6 d2             	movzbl %dl,%edx
  401f01:	be 08 34 40 00       	mov    $0x403408,%esi
  401f06:	48 89 e7             	mov    %rsp,%rdi
  401f09:	b8 00 00 00 00       	mov    $0x0,%eax
  401f0e:	e8 cd ee ff ff       	callq  400de0 <sprintf@plt>
  401f13:	0f b6 04 24          	movzbl (%rsp),%eax
  401f17:	88 45 00             	mov    %al,0x0(%rbp)
  401f1a:	0f b6 44 24 01       	movzbl 0x1(%rsp),%eax
  401f1f:	88 45 01             	mov    %al,0x1(%rbp)
  401f22:	0f b6 44 24 02       	movzbl 0x2(%rsp),%eax
  401f27:	88 45 02             	mov    %al,0x2(%rbp)
  401f2a:	48 8d 6d 03          	lea    0x3(%rbp),%rbp
  401f2e:	48 83 c3 01          	add    $0x1,%rbx
  401f32:	44 89 e0             	mov    %r12d,%eax
  401f35:	44 8d 60 ff          	lea    -0x1(%rax),%r12d
  401f39:	85 c0                	test   %eax,%eax
  401f3b:	0f 85 61 ff ff ff    	jne    401ea2 <urlencode+0x27>
  401f41:	eb 05                	jmp    401f48 <urlencode+0xcd>
  401f43:	b8 ff ff ff ff       	mov    $0xffffffff,%eax
  401f48:	48 83 c4 10          	add    $0x10,%rsp
  401f4c:	5b                   	pop    %rbx
  401f4d:	5d                   	pop    %rbp
  401f4e:	41 5c                	pop    %r12
  401f50:	c3                   	retq   

0000000000401f51 <rio_writen>:
  401f51:	41 55                	push   %r13
  401f53:	41 54                	push   %r12
  401f55:	55                   	push   %rbp
  401f56:	53                   	push   %rbx
  401f57:	48 83 ec 08          	sub    $0x8,%rsp
  401f5b:	41 89 fc             	mov    %edi,%r12d
  401f5e:	48 89 f5             	mov    %rsi,%rbp
  401f61:	49 89 d5             	mov    %rdx,%r13
  401f64:	48 89 d3             	mov    %rdx,%rbx
  401f67:	eb 28                	jmp    401f91 <rio_writen+0x40>
  401f69:	48 89 da             	mov    %rbx,%rdx
  401f6c:	48 89 ee             	mov    %rbp,%rsi
  401f6f:	44 89 e7             	mov    %r12d,%edi
  401f72:	e8 e9 ec ff ff       	callq  400c60 <write@plt>
  401f77:	48 85 c0             	test   %rax,%rax
  401f7a:	7f 0f                	jg     401f8b <rio_writen+0x3a>
  401f7c:	e8 8f ec ff ff       	callq  400c10 <__errno_location@plt>
  401f81:	83 38 04             	cmpl   $0x4,(%rax)
  401f84:	75 15                	jne    401f9b <rio_writen+0x4a>
  401f86:	b8 00 00 00 00       	mov    $0x0,%eax
  401f8b:	48 29 c3             	sub    %rax,%rbx
  401f8e:	48 01 c5             	add    %rax,%rbp
  401f91:	48 85 db             	test   %rbx,%rbx
  401f94:	75 d3                	jne    401f69 <rio_writen+0x18>
  401f96:	4c 89 e8             	mov    %r13,%rax
  401f99:	eb 07                	jmp    401fa2 <rio_writen+0x51>
  401f9b:	48 c7 c0 ff ff ff ff 	mov    $0xffffffffffffffff,%rax
  401fa2:	48 83 c4 08          	add    $0x8,%rsp
  401fa6:	5b                   	pop    %rbx
  401fa7:	5d                   	pop    %rbp
  401fa8:	41 5c                	pop    %r12
  401faa:	41 5d                	pop    %r13
  401fac:	c3                   	retq   

0000000000401fad <rio_read>:
  401fad:	41 56                	push   %r14
  401faf:	41 55                	push   %r13
  401fb1:	41 54                	push   %r12
  401fb3:	55                   	push   %rbp
  401fb4:	53                   	push   %rbx
  401fb5:	48 89 fb             	mov    %rdi,%rbx
  401fb8:	49 89 f6             	mov    %rsi,%r14
  401fbb:	49 89 d5             	mov    %rdx,%r13
  401fbe:	4c 8d 67 10          	lea    0x10(%rdi),%r12
  401fc2:	eb 2a                	jmp    401fee <rio_read+0x41>
  401fc4:	ba 00 20 00 00       	mov    $0x2000,%edx
  401fc9:	4c 89 e6             	mov    %r12,%rsi
  401fcc:	8b 3b                	mov    (%rbx),%edi
  401fce:	e8 ed ec ff ff       	callq  400cc0 <read@plt>
  401fd3:	89 43 04             	mov    %eax,0x4(%rbx)
  401fd6:	85 c0                	test   %eax,%eax
  401fd8:	79 0c                	jns    401fe6 <rio_read+0x39>
  401fda:	e8 31 ec ff ff       	callq  400c10 <__errno_location@plt>
  401fdf:	83 38 04             	cmpl   $0x4,(%rax)
  401fe2:	74 0a                	je     401fee <rio_read+0x41>
  401fe4:	eb 37                	jmp    40201d <rio_read+0x70>
  401fe6:	85 c0                	test   %eax,%eax
  401fe8:	74 3c                	je     402026 <rio_read+0x79>
  401fea:	4c 89 63 08          	mov    %r12,0x8(%rbx)
  401fee:	8b 6b 04             	mov    0x4(%rbx),%ebp
  401ff1:	85 ed                	test   %ebp,%ebp
  401ff3:	7e cf                	jle    401fc4 <rio_read+0x17>
  401ff5:	89 e8                	mov    %ebp,%eax
  401ff7:	4c 39 e8             	cmp    %r13,%rax
  401ffa:	72 03                	jb     401fff <rio_read+0x52>
  401ffc:	44 89 ed             	mov    %r13d,%ebp
  401fff:	4c 63 e5             	movslq %ebp,%r12
  402002:	48 8b 73 08          	mov    0x8(%rbx),%rsi
  402006:	4c 89 e2             	mov    %r12,%rdx
  402009:	4c 89 f7             	mov    %r14,%rdi
  40200c:	e8 1f ed ff ff       	callq  400d30 <memcpy@plt>
  402011:	4c 01 63 08          	add    %r12,0x8(%rbx)
  402015:	29 6b 04             	sub    %ebp,0x4(%rbx)
  402018:	4c 89 e0             	mov    %r12,%rax
  40201b:	eb 0e                	jmp    40202b <rio_read+0x7e>
  40201d:	48 c7 c0 ff ff ff ff 	mov    $0xffffffffffffffff,%rax
  402024:	eb 05                	jmp    40202b <rio_read+0x7e>
  402026:	b8 00 00 00 00       	mov    $0x0,%eax
  40202b:	5b                   	pop    %rbx
  40202c:	5d                   	pop    %rbp
  40202d:	41 5c                	pop    %r12
  40202f:	41 5d                	pop    %r13
  402031:	41 5e                	pop    %r14
  402033:	c3                   	retq   

0000000000402034 <rio_readlineb>:
  402034:	41 55                	push   %r13
  402036:	41 54                	push   %r12
  402038:	55                   	push   %rbp
  402039:	53                   	push   %rbx
  40203a:	48 83 ec 18          	sub    $0x18,%rsp
  40203e:	49 89 fd             	mov    %rdi,%r13
  402041:	48 89 f5             	mov    %rsi,%rbp
  402044:	49 89 d4             	mov    %rdx,%r12
  402047:	bb 01 00 00 00       	mov    $0x1,%ebx
  40204c:	eb 3d                	jmp    40208b <rio_readlineb+0x57>
  40204e:	ba 01 00 00 00       	mov    $0x1,%edx
  402053:	48 8d 74 24 0f       	lea    0xf(%rsp),%rsi
  402058:	4c 89 ef             	mov    %r13,%rdi
  40205b:	e8 4d ff ff ff       	callq  401fad <rio_read>
  402060:	83 f8 01             	cmp    $0x1,%eax
  402063:	75 12                	jne    402077 <rio_readlineb+0x43>
  402065:	48 8d 55 01          	lea    0x1(%rbp),%rdx
  402069:	0f b6 44 24 0f       	movzbl 0xf(%rsp),%eax
  40206e:	88 45 00             	mov    %al,0x0(%rbp)
  402071:	3c 0a                	cmp    $0xa,%al
  402073:	75 0f                	jne    402084 <rio_readlineb+0x50>
  402075:	eb 1b                	jmp    402092 <rio_readlineb+0x5e>
  402077:	85 c0                	test   %eax,%eax
  402079:	75 23                	jne    40209e <rio_readlineb+0x6a>
  40207b:	48 83 fb 01          	cmp    $0x1,%rbx
  40207f:	90                   	nop
  402080:	75 13                	jne    402095 <rio_readlineb+0x61>
  402082:	eb 23                	jmp    4020a7 <rio_readlineb+0x73>
  402084:	48 83 c3 01          	add    $0x1,%rbx
  402088:	48 89 d5             	mov    %rdx,%rbp
  40208b:	4c 39 e3             	cmp    %r12,%rbx
  40208e:	72 be                	jb     40204e <rio_readlineb+0x1a>
  402090:	eb 03                	jmp    402095 <rio_readlineb+0x61>
  402092:	48 89 d5             	mov    %rdx,%rbp
  402095:	c6 45 00 00          	movb   $0x0,0x0(%rbp)
  402099:	48 89 d8             	mov    %rbx,%rax
  40209c:	eb 0e                	jmp    4020ac <rio_readlineb+0x78>
  40209e:	48 c7 c0 ff ff ff ff 	mov    $0xffffffffffffffff,%rax
  4020a5:	eb 05                	jmp    4020ac <rio_readlineb+0x78>
  4020a7:	b8 00 00 00 00       	mov    $0x0,%eax
  4020ac:	48 83 c4 18          	add    $0x18,%rsp
  4020b0:	5b                   	pop    %rbx
  4020b1:	5d                   	pop    %rbp
  4020b2:	41 5c                	pop    %r12
  4020b4:	41 5d                	pop    %r13
  4020b6:	c3                   	retq   

00000000004020b7 <submitr>:
  4020b7:	41 57                	push   %r15
  4020b9:	41 56                	push   %r14
  4020bb:	41 55                	push   %r13
  4020bd:	41 54                	push   %r12
  4020bf:	55                   	push   %rbp
  4020c0:	53                   	push   %rbx
  4020c1:	48 81 ec 48 a0 00 00 	sub    $0xa048,%rsp
  4020c8:	49 89 fc             	mov    %rdi,%r12
  4020cb:	89 74 24 04          	mov    %esi,0x4(%rsp)
  4020cf:	49 89 d7             	mov    %rdx,%r15
  4020d2:	49 89 ce             	mov    %rcx,%r14
  4020d5:	4c 89 44 24 08       	mov    %r8,0x8(%rsp)
  4020da:	4d 89 cd             	mov    %r9,%r13
  4020dd:	48 8b 9c 24 80 a0 00 	mov    0xa080(%rsp),%rbx
  4020e4:	00 
  4020e5:	c7 84 24 1c 20 00 00 	movl   $0x0,0x201c(%rsp)
  4020ec:	00 00 00 00 
  4020f0:	ba 00 00 00 00       	mov    $0x0,%edx
  4020f5:	be 01 00 00 00       	mov    $0x1,%esi
  4020fa:	bf 02 00 00 00       	mov    $0x2,%edi
  4020ff:	e8 0c ed ff ff       	callq  400e10 <socket@plt>
  402104:	89 c5                	mov    %eax,%ebp
  402106:	85 c0                	test   %eax,%eax
  402108:	79 4e                	jns    402158 <submitr+0xa1>
  40210a:	48 b8 45 72 72 6f 72 	movabs $0x43203a726f727245,%rax
  402111:	3a 20 43 
  402114:	48 89 03             	mov    %rax,(%rbx)
  402117:	48 b8 6c 69 65 6e 74 	movabs $0x6e7520746e65696c,%rax
  40211e:	20 75 6e 
  402121:	48 89 43 08          	mov    %rax,0x8(%rbx)
  402125:	48 b8 61 62 6c 65 20 	movabs $0x206f7420656c6261,%rax
  40212c:	74 6f 20 
  40212f:	48 89 43 10          	mov    %rax,0x10(%rbx)
  402133:	48 b8 63 72 65 61 74 	movabs $0x7320657461657263,%rax
  40213a:	65 20 73 
  40213d:	48 89 43 18          	mov    %rax,0x18(%rbx)
  402141:	c7 43 20 6f 63 6b 65 	movl   $0x656b636f,0x20(%rbx)
  402148:	66 c7 43 24 74 00    	movw   $0x74,0x24(%rbx)
  40214e:	b8 ff ff ff ff       	mov    $0xffffffff,%eax
  402153:	e9 68 06 00 00       	jmpq   4027c0 <submitr+0x709>
  402158:	4c 89 e7             	mov    %r12,%rdi
  40215b:	e8 90 eb ff ff       	callq  400cf0 <gethostbyname@plt>
  402160:	48 85 c0             	test   %rax,%rax
  402163:	75 67                	jne    4021cc <submitr+0x115>
  402165:	48 b8 45 72 72 6f 72 	movabs $0x44203a726f727245,%rax
  40216c:	3a 20 44 
  40216f:	48 89 03             	mov    %rax,(%rbx)
  402172:	48 b8 4e 53 20 69 73 	movabs $0x6e7520736920534e,%rax
  402179:	20 75 6e 
  40217c:	48 89 43 08          	mov    %rax,0x8(%rbx)
  402180:	48 b8 61 62 6c 65 20 	movabs $0x206f7420656c6261,%rax
  402187:	74 6f 20 
  40218a:	48 89 43 10          	mov    %rax,0x10(%rbx)
  40218e:	48 b8 72 65 73 6f 6c 	movabs $0x2065766c6f736572,%rax
  402195:	76 65 20 
  402198:	48 89 43 18          	mov    %rax,0x18(%rbx)
  40219c:	48 b8 73 65 72 76 65 	movabs $0x6120726576726573,%rax
  4021a3:	72 20 61 
  4021a6:	48 89 43 20          	mov    %rax,0x20(%rbx)
  4021aa:	c7 43 28 64 64 72 65 	movl   $0x65726464,0x28(%rbx)
  4021b1:	66 c7 43 2c 73 73    	movw   $0x7373,0x2c(%rbx)
  4021b7:	c6 43 2e 00          	movb   $0x0,0x2e(%rbx)
  4021bb:	89 ef                	mov    %ebp,%edi
  4021bd:	e8 ee ea ff ff       	callq  400cb0 <close@plt>
  4021c2:	b8 ff ff ff ff       	mov    $0xffffffff,%eax
  4021c7:	e9 f4 05 00 00       	jmpq   4027c0 <submitr+0x709>
  4021cc:	48 c7 84 24 30 a0 00 	movq   $0x0,0xa030(%rsp)
  4021d3:	00 00 00 00 00 
  4021d8:	48 c7 84 24 38 a0 00 	movq   $0x0,0xa038(%rsp)
  4021df:	00 00 00 00 00 
  4021e4:	66 c7 84 24 30 a0 00 	movw   $0x2,0xa030(%rsp)
  4021eb:	00 02 00 
  4021ee:	48 8b 48 18          	mov    0x18(%rax),%rcx
  4021f2:	48 63 50 14          	movslq 0x14(%rax),%rdx
  4021f6:	48 8d b4 24 34 a0 00 	lea    0xa034(%rsp),%rsi
  4021fd:	00 
  4021fe:	48 8b 39             	mov    (%rcx),%rdi
  402201:	e8 8a eb ff ff       	callq  400d90 <bcopy@plt>
  402206:	0f b7 44 24 04       	movzwl 0x4(%rsp),%eax
  40220b:	66 c1 c8 08          	ror    $0x8,%ax
  40220f:	66 89 84 24 32 a0 00 	mov    %ax,0xa032(%rsp)
  402216:	00 
  402217:	ba 10 00 00 00       	mov    $0x10,%edx
  40221c:	48 8d b4 24 30 a0 00 	lea    0xa030(%rsp),%rsi
  402223:	00 
  402224:	89 ef                	mov    %ebp,%edi
  402226:	e8 d5 eb ff ff       	callq  400e00 <connect@plt>
  40222b:	85 c0                	test   %eax,%eax
  40222d:	79 59                	jns    402288 <submitr+0x1d1>
  40222f:	48 b8 45 72 72 6f 72 	movabs $0x55203a726f727245,%rax
  402236:	3a 20 55 
  402239:	48 89 03             	mov    %rax,(%rbx)
  40223c:	48 b8 6e 61 62 6c 65 	movabs $0x6f7420656c62616e,%rax
  402243:	20 74 6f 
  402246:	48 89 43 08          	mov    %rax,0x8(%rbx)
  40224a:	48 b8 20 63 6f 6e 6e 	movabs $0x7463656e6e6f6320,%rax
  402251:	65 63 74 
  402254:	48 89 43 10          	mov    %rax,0x10(%rbx)
  402258:	48 b8 20 74 6f 20 74 	movabs $0x20656874206f7420,%rax
  40225f:	68 65 20 
  402262:	48 89 43 18          	mov    %rax,0x18(%rbx)
  402266:	c7 43 20 73 65 72 76 	movl   $0x76726573,0x20(%rbx)
  40226d:	66 c7 43 24 65 72    	movw   $0x7265,0x24(%rbx)
  402273:	c6 43 26 00          	movb   $0x0,0x26(%rbx)
  402277:	89 ef                	mov    %ebp,%edi
  402279:	e8 32 ea ff ff       	callq  400cb0 <close@plt>
  40227e:	b8 ff ff ff ff       	mov    $0xffffffff,%eax
  402283:	e9 38 05 00 00       	jmpq   4027c0 <submitr+0x709>
  402288:	48 c7 c2 ff ff ff ff 	mov    $0xffffffffffffffff,%rdx
  40228f:	4c 89 ef             	mov    %r13,%rdi
  402292:	b8 00 00 00 00       	mov    $0x0,%eax
  402297:	48 89 d1             	mov    %rdx,%rcx
  40229a:	f2 ae                	repnz scas %es:(%rdi),%al
  40229c:	48 f7 d1             	not    %rcx
  40229f:	48 89 ce             	mov    %rcx,%rsi
  4022a2:	4c 89 ff             	mov    %r15,%rdi
  4022a5:	48 89 d1             	mov    %rdx,%rcx
  4022a8:	f2 ae                	repnz scas %es:(%rdi),%al
  4022aa:	48 f7 d1             	not    %rcx
  4022ad:	49 89 c8             	mov    %rcx,%r8
  4022b0:	4c 89 f7             	mov    %r14,%rdi
  4022b3:	48 89 d1             	mov    %rdx,%rcx
  4022b6:	f2 ae                	repnz scas %es:(%rdi),%al
  4022b8:	49 29 c8             	sub    %rcx,%r8
  4022bb:	48 8b 7c 24 08       	mov    0x8(%rsp),%rdi
  4022c0:	48 89 d1             	mov    %rdx,%rcx
  4022c3:	f2 ae                	repnz scas %es:(%rdi),%al
  4022c5:	49 29 c8             	sub    %rcx,%r8
  4022c8:	48 8d 44 76 fd       	lea    -0x3(%rsi,%rsi,2),%rax
  4022cd:	49 8d 44 00 7b       	lea    0x7b(%r8,%rax,1),%rax
  4022d2:	48 3d 00 20 00 00    	cmp    $0x2000,%rax
  4022d8:	76 72                	jbe    40234c <submitr+0x295>
  4022da:	48 b8 45 72 72 6f 72 	movabs $0x52203a726f727245,%rax
  4022e1:	3a 20 52 
  4022e4:	48 89 03             	mov    %rax,(%rbx)
  4022e7:	48 b8 65 73 75 6c 74 	movabs $0x747320746c757365,%rax
  4022ee:	20 73 74 
  4022f1:	48 89 43 08          	mov    %rax,0x8(%rbx)
  4022f5:	48 b8 72 69 6e 67 20 	movabs $0x6f6f7420676e6972,%rax
  4022fc:	74 6f 6f 
  4022ff:	48 89 43 10          	mov    %rax,0x10(%rbx)
  402303:	48 b8 20 6c 61 72 67 	movabs $0x202e656772616c20,%rax
  40230a:	65 2e 20 
  40230d:	48 89 43 18          	mov    %rax,0x18(%rbx)
  402311:	48 b8 49 6e 63 72 65 	movabs $0x6573616572636e49,%rax
  402318:	61 73 65 
  40231b:	48 89 43 20          	mov    %rax,0x20(%rbx)
  40231f:	48 b8 20 53 55 42 4d 	movabs $0x5254494d42555320,%rax
  402326:	49 54 52 
  402329:	48 89 43 28          	mov    %rax,0x28(%rbx)
  40232d:	48 b8 5f 4d 41 58 42 	movabs $0x46554258414d5f,%rax
  402334:	55 46 00 
  402337:	48 89 43 30          	mov    %rax,0x30(%rbx)
  40233b:	89 ef                	mov    %ebp,%edi
  40233d:	e8 6e e9 ff ff       	callq  400cb0 <close@plt>
  402342:	b8 ff ff ff ff       	mov    $0xffffffff,%eax
  402347:	e9 74 04 00 00       	jmpq   4027c0 <submitr+0x709>
  40234c:	48 8d b4 24 20 40 00 	lea    0x4020(%rsp),%rsi
  402353:	00 
  402354:	b9 00 04 00 00       	mov    $0x400,%ecx
  402359:	b8 00 00 00 00       	mov    $0x0,%eax
  40235e:	48 89 f7             	mov    %rsi,%rdi
  402361:	f3 48 ab             	rep stos %rax,%es:(%rdi)
  402364:	4c 89 ef             	mov    %r13,%rdi
  402367:	e8 0f fb ff ff       	callq  401e7b <urlencode>
  40236c:	85 c0                	test   %eax,%eax
  40236e:	0f 89 8a 00 00 00    	jns    4023fe <submitr+0x347>
  402374:	48 b8 45 72 72 6f 72 	movabs $0x52203a726f727245,%rax
  40237b:	3a 20 52 
  40237e:	48 89 03             	mov    %rax,(%rbx)
  402381:	48 b8 65 73 75 6c 74 	movabs $0x747320746c757365,%rax
  402388:	20 73 74 
  40238b:	48 89 43 08          	mov    %rax,0x8(%rbx)
  40238f:	48 b8 72 69 6e 67 20 	movabs $0x6e6f6320676e6972,%rax
  402396:	63 6f 6e 
  402399:	48 89 43 10          	mov    %rax,0x10(%rbx)
  40239d:	48 b8 74 61 69 6e 73 	movabs $0x6e6120736e696174,%rax
  4023a4:	20 61 6e 
  4023a7:	48 89 43 18          	mov    %rax,0x18(%rbx)
  4023ab:	48 b8 20 69 6c 6c 65 	movabs $0x6c6167656c6c6920,%rax
  4023b2:	67 61 6c 
  4023b5:	48 89 43 20          	mov    %rax,0x20(%rbx)
  4023b9:	48 b8 20 6f 72 20 75 	movabs $0x72706e7520726f20,%rax
  4023c0:	6e 70 72 
  4023c3:	48 89 43 28          	mov    %rax,0x28(%rbx)
  4023c7:	48 b8 69 6e 74 61 62 	movabs $0x20656c6261746e69,%rax
  4023ce:	6c 65 20 
  4023d1:	48 89 43 30          	mov    %rax,0x30(%rbx)
  4023d5:	48 b8 63 68 61 72 61 	movabs $0x6574636172616863,%rax
  4023dc:	63 74 65 
  4023df:	48 89 43 38          	mov    %rax,0x38(%rbx)
  4023e3:	66 c7 43 40 72 2e    	movw   $0x2e72,0x40(%rbx)
  4023e9:	c6 43 42 00          	movb   $0x0,0x42(%rbx)
  4023ed:	89 ef                	mov    %ebp,%edi
  4023ef:	e8 bc e8 ff ff       	callq  400cb0 <close@plt>
  4023f4:	b8 ff ff ff ff       	mov    $0xffffffff,%eax
  4023f9:	e9 c2 03 00 00       	jmpq   4027c0 <submitr+0x709>
  4023fe:	4d 89 e1             	mov    %r12,%r9
  402401:	4c 8d 84 24 20 40 00 	lea    0x4020(%rsp),%r8
  402408:	00 
  402409:	4c 89 f9             	mov    %r15,%rcx
  40240c:	4c 89 f2             	mov    %r14,%rdx
  40240f:	be 98 33 40 00       	mov    $0x403398,%esi
  402414:	48 8d bc 24 20 60 00 	lea    0x6020(%rsp),%rdi
  40241b:	00 
  40241c:	b8 00 00 00 00       	mov    $0x0,%eax
  402421:	e8 ba e9 ff ff       	callq  400de0 <sprintf@plt>
  402426:	48 8d bc 24 20 60 00 	lea    0x6020(%rsp),%rdi
  40242d:	00 
  40242e:	b8 00 00 00 00       	mov    $0x0,%eax
  402433:	48 c7 c1 ff ff ff ff 	mov    $0xffffffffffffffff,%rcx
  40243a:	f2 ae                	repnz scas %es:(%rdi),%al
  40243c:	48 f7 d1             	not    %rcx
  40243f:	48 8d 51 ff          	lea    -0x1(%rcx),%rdx
  402443:	48 8d b4 24 20 60 00 	lea    0x6020(%rsp),%rsi
  40244a:	00 
  40244b:	89 ef                	mov    %ebp,%edi
  40244d:	e8 ff fa ff ff       	callq  401f51 <rio_writen>
  402452:	48 85 c0             	test   %rax,%rax
  402455:	79 6e                	jns    4024c5 <submitr+0x40e>
  402457:	48 b8 45 72 72 6f 72 	movabs $0x43203a726f727245,%rax
  40245e:	3a 20 43 
  402461:	48 89 03             	mov    %rax,(%rbx)
  402464:	48 b8 6c 69 65 6e 74 	movabs $0x6e7520746e65696c,%rax
  40246b:	20 75 6e 
  40246e:	48 89 43 08          	mov    %rax,0x8(%rbx)
  402472:	48 b8 61 62 6c 65 20 	movabs $0x206f7420656c6261,%rax
  402479:	74 6f 20 
  40247c:	48 89 43 10          	mov    %rax,0x10(%rbx)
  402480:	48 b8 77 72 69 74 65 	movabs $0x6f74206574697277,%rax
  402487:	20 74 6f 
  40248a:	48 89 43 18          	mov    %rax,0x18(%rbx)
  40248e:	48 b8 20 74 68 65 20 	movabs $0x7365722065687420,%rax
  402495:	72 65 73 
  402498:	48 89 43 20          	mov    %rax,0x20(%rbx)
  40249c:	48 b8 75 6c 74 20 73 	movabs $0x7672657320746c75,%rax
  4024a3:	65 72 76 
  4024a6:	48 89 43 28          	mov    %rax,0x28(%rbx)
  4024aa:	66 c7 43 30 65 72    	movw   $0x7265,0x30(%rbx)
  4024b0:	c6 43 32 00          	movb   $0x0,0x32(%rbx)
  4024b4:	89 ef                	mov    %ebp,%edi
  4024b6:	e8 f5 e7 ff ff       	callq  400cb0 <close@plt>
  4024bb:	b8 ff ff ff ff       	mov    $0xffffffff,%eax
  4024c0:	e9 fb 02 00 00       	jmpq   4027c0 <submitr+0x709>
  4024c5:	89 ee                	mov    %ebp,%esi
  4024c7:	48 8d bc 24 20 80 00 	lea    0x8020(%rsp),%rdi
  4024ce:	00 
  4024cf:	e8 6c f9 ff ff       	callq  401e40 <rio_readinitb>
  4024d4:	ba 00 20 00 00       	mov    $0x2000,%edx
  4024d9:	48 8d b4 24 20 60 00 	lea    0x6020(%rsp),%rsi
  4024e0:	00 
  4024e1:	48 8d bc 24 20 80 00 	lea    0x8020(%rsp),%rdi
  4024e8:	00 
  4024e9:	e8 46 fb ff ff       	callq  402034 <rio_readlineb>
  4024ee:	48 85 c0             	test   %rax,%rax
  4024f1:	7f 7d                	jg     402570 <submitr+0x4b9>
  4024f3:	48 b8 45 72 72 6f 72 	movabs $0x43203a726f727245,%rax
  4024fa:	3a 20 43 
  4024fd:	48 89 03             	mov    %rax,(%rbx)
  402500:	48 b8 6c 69 65 6e 74 	movabs $0x6e7520746e65696c,%rax
  402507:	20 75 6e 
  40250a:	48 89 43 08          	mov    %rax,0x8(%rbx)
  40250e:	48 b8 61 62 6c 65 20 	movabs $0x206f7420656c6261,%rax
  402515:	74 6f 20 
  402518:	48 89 43 10          	mov    %rax,0x10(%rbx)
  40251c:	48 b8 72 65 61 64 20 	movabs $0x7269662064616572,%rax
  402523:	66 69 72 
  402526:	48 89 43 18          	mov    %rax,0x18(%rbx)
  40252a:	48 b8 73 74 20 68 65 	movabs $0x6564616568207473,%rax
  402531:	61 64 65 
  402534:	48 89 43 20          	mov    %rax,0x20(%rbx)
  402538:	48 b8 72 20 66 72 6f 	movabs $0x72206d6f72662072,%rax
  40253f:	6d 20 72 
  402542:	48 89 43 28          	mov    %rax,0x28(%rbx)
  402546:	48 b8 65 73 75 6c 74 	movabs $0x657320746c757365,%rax
  40254d:	20 73 65 
  402550:	48 89 43 30          	mov    %rax,0x30(%rbx)
  402554:	c7 43 38 72 76 65 72 	movl   $0x72657672,0x38(%rbx)
  40255b:	c6 43 3c 00          	movb   $0x0,0x3c(%rbx)
  40255f:	89 ef                	mov    %ebp,%edi
  402561:	e8 4a e7 ff ff       	callq  400cb0 <close@plt>
  402566:	b8 ff ff ff ff       	mov    $0xffffffff,%eax
  40256b:	e9 50 02 00 00       	jmpq   4027c0 <submitr+0x709>
  402570:	4c 8d 44 24 10       	lea    0x10(%rsp),%r8
  402575:	48 8d 8c 24 1c 20 00 	lea    0x201c(%rsp),%rcx
  40257c:	00 
  40257d:	48 8d 94 24 20 20 00 	lea    0x2020(%rsp),%rdx
  402584:	00 
  402585:	be 0f 34 40 00       	mov    $0x40340f,%esi
  40258a:	48 8d bc 24 20 60 00 	lea    0x6020(%rsp),%rdi
  402591:	00 
  402592:	b8 00 00 00 00       	mov    $0x0,%eax
  402597:	e8 d4 e7 ff ff       	callq  400d70 <__isoc99_sscanf@plt>
  40259c:	e9 98 00 00 00       	jmpq   402639 <submitr+0x582>
  4025a1:	ba 00 20 00 00       	mov    $0x2000,%edx
  4025a6:	48 8d b4 24 20 60 00 	lea    0x6020(%rsp),%rsi
  4025ad:	00 
  4025ae:	48 8d bc 24 20 80 00 	lea    0x8020(%rsp),%rdi
  4025b5:	00 
  4025b6:	e8 79 fa ff ff       	callq  402034 <rio_readlineb>
  4025bb:	48 85 c0             	test   %rax,%rax
  4025be:	7f 79                	jg     402639 <submitr+0x582>
  4025c0:	48 b8 45 72 72 6f 72 	movabs $0x43203a726f727245,%rax
  4025c7:	3a 20 43 
  4025ca:	48 89 03             	mov    %rax,(%rbx)
  4025cd:	48 b8 6c 69 65 6e 74 	movabs $0x6e7520746e65696c,%rax
  4025d4:	20 75 6e 
  4025d7:	48 89 43 08          	mov    %rax,0x8(%rbx)
  4025db:	48 b8 61 62 6c 65 20 	movabs $0x206f7420656c6261,%rax
  4025e2:	74 6f 20 
  4025e5:	48 89 43 10          	mov    %rax,0x10(%rbx)
  4025e9:	48 b8 72 65 61 64 20 	movabs $0x6165682064616572,%rax
  4025f0:	68 65 61 
  4025f3:	48 89 43 18          	mov    %rax,0x18(%rbx)
  4025f7:	48 b8 64 65 72 73 20 	movabs $0x6f72662073726564,%rax
  4025fe:	66 72 6f 
  402601:	48 89 43 20          	mov    %rax,0x20(%rbx)
  402605:	48 b8 6d 20 74 68 65 	movabs $0x657220656874206d,%rax
  40260c:	20 72 65 
  40260f:	48 89 43 28          	mov    %rax,0x28(%rbx)
  402613:	48 b8 73 75 6c 74 20 	movabs $0x72657320746c7573,%rax
  40261a:	73 65 72 
  40261d:	48 89 43 30          	mov    %rax,0x30(%rbx)
  402621:	c7 43 38 76 65 72 00 	movl   $0x726576,0x38(%rbx)
  402628:	89 ef                	mov    %ebp,%edi
  40262a:	e8 81 e6 ff ff       	callq  400cb0 <close@plt>
  40262f:	b8 ff ff ff ff       	mov    $0xffffffff,%eax
  402634:	e9 87 01 00 00       	jmpq   4027c0 <submitr+0x709>
  402639:	0f b6 84 24 20 60 00 	movzbl 0x6020(%rsp),%eax
  402640:	00 
  402641:	83 e8 0d             	sub    $0xd,%eax
  402644:	75 15                	jne    40265b <submitr+0x5a4>
  402646:	0f b6 84 24 21 60 00 	movzbl 0x6021(%rsp),%eax
  40264d:	00 
  40264e:	83 e8 0a             	sub    $0xa,%eax
  402651:	75 08                	jne    40265b <submitr+0x5a4>
  402653:	0f b6 84 24 22 60 00 	movzbl 0x6022(%rsp),%eax
  40265a:	00 
  40265b:	85 c0                	test   %eax,%eax
  40265d:	0f 85 3e ff ff ff    	jne    4025a1 <submitr+0x4ea>
  402663:	ba 00 20 00 00       	mov    $0x2000,%edx
  402668:	48 8d b4 24 20 60 00 	lea    0x6020(%rsp),%rsi
  40266f:	00 
  402670:	48 8d bc 24 20 80 00 	lea    0x8020(%rsp),%rdi
  402677:	00 
  402678:	e8 b7 f9 ff ff       	callq  402034 <rio_readlineb>
  40267d:	48 85 c0             	test   %rax,%rax
  402680:	0f 8f 83 00 00 00    	jg     402709 <submitr+0x652>
  402686:	48 b8 45 72 72 6f 72 	movabs $0x43203a726f727245,%rax
  40268d:	3a 20 43 
  402690:	48 89 03             	mov    %rax,(%rbx)
  402693:	48 b8 6c 69 65 6e 74 	movabs $0x6e7520746e65696c,%rax
  40269a:	20 75 6e 
  40269d:	48 89 43 08          	mov    %rax,0x8(%rbx)
  4026a1:	48 b8 61 62 6c 65 20 	movabs $0x206f7420656c6261,%rax
  4026a8:	74 6f 20 
  4026ab:	48 89 43 10          	mov    %rax,0x10(%rbx)
  4026af:	48 b8 72 65 61 64 20 	movabs $0x6174732064616572,%rax
  4026b6:	73 74 61 
  4026b9:	48 89 43 18          	mov    %rax,0x18(%rbx)
  4026bd:	48 b8 74 75 73 20 6d 	movabs $0x7373656d20737574,%rax
  4026c4:	65 73 73 
  4026c7:	48 89 43 20          	mov    %rax,0x20(%rbx)
  4026cb:	48 b8 61 67 65 20 66 	movabs $0x6d6f726620656761,%rax
  4026d2:	72 6f 6d 
  4026d5:	48 89 43 28          	mov    %rax,0x28(%rbx)
  4026d9:	48 b8 20 72 65 73 75 	movabs $0x20746c7573657220,%rax
  4026e0:	6c 74 20 
  4026e3:	48 89 43 30          	mov    %rax,0x30(%rbx)
  4026e7:	c7 43 38 73 65 72 76 	movl   $0x76726573,0x38(%rbx)
  4026ee:	66 c7 43 3c 65 72    	movw   $0x7265,0x3c(%rbx)
  4026f4:	c6 43 3e 00          	movb   $0x0,0x3e(%rbx)
  4026f8:	89 ef                	mov    %ebp,%edi
  4026fa:	e8 b1 e5 ff ff       	callq  400cb0 <close@plt>
  4026ff:	b8 ff ff ff ff       	mov    $0xffffffff,%eax
  402704:	e9 b7 00 00 00       	jmpq   4027c0 <submitr+0x709>
  402709:	8b 94 24 1c 20 00 00 	mov    0x201c(%rsp),%edx
  402710:	81 fa c8 00 00 00    	cmp    $0xc8,%edx
  402716:	74 28                	je     402740 <submitr+0x689>
  402718:	48 8d 4c 24 10       	lea    0x10(%rsp),%rcx
  40271d:	be d8 33 40 00       	mov    $0x4033d8,%esi
  402722:	48 89 df             	mov    %rbx,%rdi
  402725:	b8 00 00 00 00       	mov    $0x0,%eax
  40272a:	e8 b1 e6 ff ff       	callq  400de0 <sprintf@plt>
  40272f:	89 ef                	mov    %ebp,%edi
  402731:	e8 7a e5 ff ff       	callq  400cb0 <close@plt>
  402736:	b8 ff ff ff ff       	mov    $0xffffffff,%eax
  40273b:	e9 80 00 00 00       	jmpq   4027c0 <submitr+0x709>
  402740:	48 8d b4 24 20 60 00 	lea    0x6020(%rsp),%rsi
  402747:	00 
  402748:	48 89 df             	mov    %rbx,%rdi
  40274b:	e8 f0 e4 ff ff       	callq  400c40 <strcpy@plt>
  402750:	89 ef                	mov    %ebp,%edi
  402752:	e8 59 e5 ff ff       	callq  400cb0 <close@plt>
  402757:	0f b6 03             	movzbl (%rbx),%eax
  40275a:	83 e8 4f             	sub    $0x4f,%eax
  40275d:	75 18                	jne    402777 <submitr+0x6c0>
  40275f:	0f b6 53 01          	movzbl 0x1(%rbx),%edx
  402763:	83 ea 4b             	sub    $0x4b,%edx
  402766:	75 11                	jne    402779 <submitr+0x6c2>
  402768:	0f b6 53 02          	movzbl 0x2(%rbx),%edx
  40276c:	83 ea 0a             	sub    $0xa,%edx
  40276f:	75 08                	jne    402779 <submitr+0x6c2>
  402771:	0f b6 53 03          	movzbl 0x3(%rbx),%edx
  402775:	eb 02                	jmp    402779 <submitr+0x6c2>
  402777:	89 c2                	mov    %eax,%edx
  402779:	85 d2                	test   %edx,%edx
  40277b:	74 30                	je     4027ad <submitr+0x6f6>
  40277d:	bf 20 34 40 00       	mov    $0x403420,%edi
  402782:	b9 05 00 00 00       	mov    $0x5,%ecx
  402787:	48 89 de             	mov    %rbx,%rsi
  40278a:	f3 a6                	repz cmpsb %es:(%rdi),%ds:(%rsi)
  40278c:	0f 97 c1             	seta   %cl
  40278f:	0f 92 c2             	setb   %dl
  402792:	38 d1                	cmp    %dl,%cl
  402794:	74 1e                	je     4027b4 <submitr+0x6fd>
  402796:	85 c0                	test   %eax,%eax
  402798:	75 0d                	jne    4027a7 <submitr+0x6f0>
  40279a:	0f b6 43 01          	movzbl 0x1(%rbx),%eax
  40279e:	83 e8 4b             	sub    $0x4b,%eax
  4027a1:	75 04                	jne    4027a7 <submitr+0x6f0>
  4027a3:	0f b6 43 02          	movzbl 0x2(%rbx),%eax
  4027a7:	85 c0                	test   %eax,%eax
  4027a9:	75 10                	jne    4027bb <submitr+0x704>
  4027ab:	eb 13                	jmp    4027c0 <submitr+0x709>
  4027ad:	b8 00 00 00 00       	mov    $0x0,%eax
  4027b2:	eb 0c                	jmp    4027c0 <submitr+0x709>
  4027b4:	b8 00 00 00 00       	mov    $0x0,%eax
  4027b9:	eb 05                	jmp    4027c0 <submitr+0x709>
  4027bb:	b8 ff ff ff ff       	mov    $0xffffffff,%eax
  4027c0:	48 81 c4 48 a0 00 00 	add    $0xa048,%rsp
  4027c7:	5b                   	pop    %rbx
  4027c8:	5d                   	pop    %rbp
  4027c9:	41 5c                	pop    %r12
  4027cb:	41 5d                	pop    %r13
  4027cd:	41 5e                	pop    %r14
  4027cf:	41 5f                	pop    %r15
  4027d1:	c3                   	retq   

00000000004027d2 <init_timeout>:
  4027d2:	53                   	push   %rbx
  4027d3:	89 fb                	mov    %edi,%ebx
  4027d5:	85 ff                	test   %edi,%edi
  4027d7:	74 1f                	je     4027f8 <init_timeout+0x26>
  4027d9:	85 ff                	test   %edi,%edi
  4027db:	79 05                	jns    4027e2 <init_timeout+0x10>
  4027dd:	bb 00 00 00 00       	mov    $0x0,%ebx
  4027e2:	be 52 1e 40 00       	mov    $0x401e52,%esi
  4027e7:	bf 0e 00 00 00       	mov    $0xe,%edi
  4027ec:	e8 ef e4 ff ff       	callq  400ce0 <signal@plt>
  4027f1:	89 df                	mov    %ebx,%edi
  4027f3:	e8 a8 e4 ff ff       	callq  400ca0 <alarm@plt>
  4027f8:	5b                   	pop    %rbx
  4027f9:	c3                   	retq   

00000000004027fa <init_driver>:
  4027fa:	55                   	push   %rbp
  4027fb:	53                   	push   %rbx
  4027fc:	48 83 ec 18          	sub    $0x18,%rsp
  402800:	48 89 fd             	mov    %rdi,%rbp
  402803:	be 01 00 00 00       	mov    $0x1,%esi
  402808:	bf 0d 00 00 00       	mov    $0xd,%edi
  40280d:	e8 ce e4 ff ff       	callq  400ce0 <signal@plt>
  402812:	be 01 00 00 00       	mov    $0x1,%esi
  402817:	bf 1d 00 00 00       	mov    $0x1d,%edi
  40281c:	e8 bf e4 ff ff       	callq  400ce0 <signal@plt>
  402821:	be 01 00 00 00       	mov    $0x1,%esi
  402826:	bf 1d 00 00 00       	mov    $0x1d,%edi
  40282b:	e8 b0 e4 ff ff       	callq  400ce0 <signal@plt>
  402830:	ba 00 00 00 00       	mov    $0x0,%edx
  402835:	be 01 00 00 00       	mov    $0x1,%esi
  40283a:	bf 02 00 00 00       	mov    $0x2,%edi
  40283f:	e8 cc e5 ff ff       	callq  400e10 <socket@plt>
  402844:	89 c3                	mov    %eax,%ebx
  402846:	85 c0                	test   %eax,%eax
  402848:	79 4f                	jns    402899 <init_driver+0x9f>
  40284a:	48 b8 45 72 72 6f 72 	movabs $0x43203a726f727245,%rax
  402851:	3a 20 43 
  402854:	48 89 45 00          	mov    %rax,0x0(%rbp)
  402858:	48 b8 6c 69 65 6e 74 	movabs $0x6e7520746e65696c,%rax
  40285f:	20 75 6e 
  402862:	48 89 45 08          	mov    %rax,0x8(%rbp)
  402866:	48 b8 61 62 6c 65 20 	movabs $0x206f7420656c6261,%rax
  40286d:	74 6f 20 
  402870:	48 89 45 10          	mov    %rax,0x10(%rbp)
  402874:	48 b8 63 72 65 61 74 	movabs $0x7320657461657263,%rax
  40287b:	65 20 73 
  40287e:	48 89 45 18          	mov    %rax,0x18(%rbp)
  402882:	c7 45 20 6f 63 6b 65 	movl   $0x656b636f,0x20(%rbp)
  402889:	66 c7 45 24 74 00    	movw   $0x74,0x24(%rbp)
  40288f:	b8 ff ff ff ff       	mov    $0xffffffff,%eax
  402894:	e9 23 01 00 00       	jmpq   4029bc <init_driver+0x1c2>
  402899:	bf 25 34 40 00       	mov    $0x403425,%edi
  40289e:	e8 4d e4 ff ff       	callq  400cf0 <gethostbyname@plt>
  4028a3:	48 85 c0             	test   %rax,%rax
  4028a6:	75 68                	jne    402910 <init_driver+0x116>
  4028a8:	48 b8 45 72 72 6f 72 	movabs $0x44203a726f727245,%rax
  4028af:	3a 20 44 
  4028b2:	48 89 45 00          	mov    %rax,0x0(%rbp)
  4028b6:	48 b8 4e 53 20 69 73 	movabs $0x6e7520736920534e,%rax
  4028bd:	20 75 6e 
  4028c0:	48 89 45 08          	mov    %rax,0x8(%rbp)
  4028c4:	48 b8 61 62 6c 65 20 	movabs $0x206f7420656c6261,%rax
  4028cb:	74 6f 20 
  4028ce:	48 89 45 10          	mov    %rax,0x10(%rbp)
  4028d2:	48 b8 72 65 73 6f 6c 	movabs $0x2065766c6f736572,%rax
  4028d9:	76 65 20 
  4028dc:	48 89 45 18          	mov    %rax,0x18(%rbp)
  4028e0:	48 b8 73 65 72 76 65 	movabs $0x6120726576726573,%rax
  4028e7:	72 20 61 
  4028ea:	48 89 45 20          	mov    %rax,0x20(%rbp)
  4028ee:	c7 45 28 64 64 72 65 	movl   $0x65726464,0x28(%rbp)
  4028f5:	66 c7 45 2c 73 73    	movw   $0x7373,0x2c(%rbp)
  4028fb:	c6 45 2e 00          	movb   $0x0,0x2e(%rbp)
  4028ff:	89 df                	mov    %ebx,%edi
  402901:	e8 aa e3 ff ff       	callq  400cb0 <close@plt>
  402906:	b8 ff ff ff ff       	mov    $0xffffffff,%eax
  40290b:	e9 ac 00 00 00       	jmpq   4029bc <init_driver+0x1c2>
  402910:	48 c7 04 24 00 00 00 	movq   $0x0,(%rsp)
  402917:	00 
  402918:	48 c7 44 24 08 00 00 	movq   $0x0,0x8(%rsp)
  40291f:	00 00 
  402921:	66 c7 04 24 02 00    	movw   $0x2,(%rsp)
  402927:	48 8b 48 18          	mov    0x18(%rax),%rcx
  40292b:	48 63 50 14          	movslq 0x14(%rax),%rdx
  40292f:	48 8d 74 24 04       	lea    0x4(%rsp),%rsi
  402934:	48 8b 39             	mov    (%rcx),%rdi
  402937:	e8 54 e4 ff ff       	callq  400d90 <bcopy@plt>
  40293c:	66 c7 44 24 02 47 26 	movw   $0x2647,0x2(%rsp)
  402943:	ba 10 00 00 00       	mov    $0x10,%edx
  402948:	48 89 e6             	mov    %rsp,%rsi
  40294b:	89 df                	mov    %ebx,%edi
  40294d:	e8 ae e4 ff ff       	callq  400e00 <connect@plt>
  402952:	85 c0                	test   %eax,%eax
  402954:	79 50                	jns    4029a6 <init_driver+0x1ac>
  402956:	48 b8 45 72 72 6f 72 	movabs $0x55203a726f727245,%rax
  40295d:	3a 20 55 
  402960:	48 89 45 00          	mov    %rax,0x0(%rbp)
  402964:	48 b8 6e 61 62 6c 65 	movabs $0x6f7420656c62616e,%rax
  40296b:	20 74 6f 
  40296e:	48 89 45 08          	mov    %rax,0x8(%rbp)
  402972:	48 b8 20 63 6f 6e 6e 	movabs $0x7463656e6e6f6320,%rax
  402979:	65 63 74 
  40297c:	48 89 45 10          	mov    %rax,0x10(%rbp)
  402980:	48 b8 20 74 6f 20 73 	movabs $0x76726573206f7420,%rax
  402987:	65 72 76 
  40298a:	48 89 45 18          	mov    %rax,0x18(%rbp)
  40298e:	66 c7 45 20 65 72    	movw   $0x7265,0x20(%rbp)
  402994:	c6 45 22 00          	movb   $0x0,0x22(%rbp)
  402998:	89 df                	mov    %ebx,%edi
  40299a:	e8 11 e3 ff ff       	callq  400cb0 <close@plt>
  40299f:	b8 ff ff ff ff       	mov    $0xffffffff,%eax
  4029a4:	eb 16                	jmp    4029bc <init_driver+0x1c2>
  4029a6:	89 df                	mov    %ebx,%edi
  4029a8:	e8 03 e3 ff ff       	callq  400cb0 <close@plt>
  4029ad:	66 c7 45 00 4f 4b    	movw   $0x4b4f,0x0(%rbp)
  4029b3:	c6 45 02 00          	movb   $0x0,0x2(%rbp)
  4029b7:	b8 00 00 00 00       	mov    $0x0,%eax
  4029bc:	48 83 c4 18          	add    $0x18,%rsp
  4029c0:	5b                   	pop    %rbx
  4029c1:	5d                   	pop    %rbp
  4029c2:	c3                   	retq   

00000000004029c3 <driver_post>:
  4029c3:	53                   	push   %rbx
  4029c4:	48 83 ec 10          	sub    $0x10,%rsp
  4029c8:	4c 89 cb             	mov    %r9,%rbx
  4029cb:	45 85 c0             	test   %r8d,%r8d
  4029ce:	74 22                	je     4029f2 <driver_post+0x2f>
  4029d0:	48 89 ce             	mov    %rcx,%rsi
  4029d3:	bf 39 34 40 00       	mov    $0x403439,%edi
  4029d8:	b8 00 00 00 00       	mov    $0x0,%eax
  4029dd:	e8 9e e2 ff ff       	callq  400c80 <printf@plt>
  4029e2:	66 c7 03 4f 4b       	movw   $0x4b4f,(%rbx)
  4029e7:	c6 43 02 00          	movb   $0x0,0x2(%rbx)
  4029eb:	b8 00 00 00 00       	mov    $0x0,%eax
  4029f0:	eb 39                	jmp    402a2b <driver_post+0x68>
  4029f2:	48 85 ff             	test   %rdi,%rdi
  4029f5:	74 26                	je     402a1d <driver_post+0x5a>
  4029f7:	80 3f 00             	cmpb   $0x0,(%rdi)
  4029fa:	74 21                	je     402a1d <driver_post+0x5a>
  4029fc:	4c 89 0c 24          	mov    %r9,(%rsp)
  402a00:	49 89 c9             	mov    %rcx,%r9
  402a03:	49 89 d0             	mov    %rdx,%r8
  402a06:	48 89 f9             	mov    %rdi,%rcx
  402a09:	48 89 f2             	mov    %rsi,%rdx
  402a0c:	be 26 47 00 00       	mov    $0x4726,%esi
  402a11:	bf 25 34 40 00       	mov    $0x403425,%edi
  402a16:	e8 9c f6 ff ff       	callq  4020b7 <submitr>
  402a1b:	eb 0e                	jmp    402a2b <driver_post+0x68>
  402a1d:	66 c7 03 4f 4b       	movw   $0x4b4f,(%rbx)
  402a22:	c6 43 02 00          	movb   $0x0,0x2(%rbx)
  402a26:	b8 00 00 00 00       	mov    $0x0,%eax
  402a2b:	48 83 c4 10          	add    $0x10,%rsp
  402a2f:	5b                   	pop    %rbx
  402a30:	c3                   	retq   

0000000000402a31 <check>:
  402a31:	89 f8                	mov    %edi,%eax
  402a33:	c1 e8 1c             	shr    $0x1c,%eax
  402a36:	85 c0                	test   %eax,%eax
  402a38:	74 1d                	je     402a57 <check+0x26>
  402a3a:	b9 00 00 00 00       	mov    $0x0,%ecx
  402a3f:	eb 0b                	jmp    402a4c <check+0x1b>
  402a41:	89 f8                	mov    %edi,%eax
  402a43:	d3 e8                	shr    %cl,%eax
  402a45:	3c 0a                	cmp    $0xa,%al
  402a47:	74 14                	je     402a5d <check+0x2c>
  402a49:	83 c1 08             	add    $0x8,%ecx
  402a4c:	83 f9 1f             	cmp    $0x1f,%ecx
  402a4f:	7e f0                	jle    402a41 <check+0x10>
  402a51:	b8 01 00 00 00       	mov    $0x1,%eax
  402a56:	c3                   	retq   
  402a57:	b8 00 00 00 00       	mov    $0x0,%eax
  402a5c:	c3                   	retq   
  402a5d:	b8 00 00 00 00       	mov    $0x0,%eax
  402a62:	c3                   	retq   

0000000000402a63 <gencookie>:
  402a63:	53                   	push   %rbx
  402a64:	83 c7 01             	add    $0x1,%edi
  402a67:	e8 b4 e1 ff ff       	callq  400c20 <srandom@plt>
  402a6c:	e8 df e2 ff ff       	callq  400d50 <random@plt>
  402a71:	89 c3                	mov    %eax,%ebx
  402a73:	89 c7                	mov    %eax,%edi
  402a75:	e8 b7 ff ff ff       	callq  402a31 <check>
  402a7a:	85 c0                	test   %eax,%eax
  402a7c:	74 ee                	je     402a6c <gencookie+0x9>
  402a7e:	89 d8                	mov    %ebx,%eax
  402a80:	5b                   	pop    %rbx
  402a81:	c3                   	retq   
  402a82:	66 2e 0f 1f 84 00 00 	nopw   %cs:0x0(%rax,%rax,1)
  402a89:	00 00 00 
  402a8c:	0f 1f 40 00          	nopl   0x0(%rax)

0000000000402a90 <__libc_csu_init>:
  402a90:	41 57                	push   %r15
  402a92:	41 89 ff             	mov    %edi,%r15d
  402a95:	41 56                	push   %r14
  402a97:	49 89 f6             	mov    %rsi,%r14
  402a9a:	41 55                	push   %r13
  402a9c:	49 89 d5             	mov    %rdx,%r13
  402a9f:	41 54                	push   %r12
  402aa1:	4c 8d 25 68 13 20 00 	lea    0x201368(%rip),%r12        # 603e10 <__frame_dummy_init_array_entry>
  402aa8:	55                   	push   %rbp
  402aa9:	48 8d 2d 68 13 20 00 	lea    0x201368(%rip),%rbp        # 603e18 <__init_array_end>
  402ab0:	53                   	push   %rbx
  402ab1:	4c 29 e5             	sub    %r12,%rbp
  402ab4:	31 db                	xor    %ebx,%ebx
  402ab6:	48 c1 fd 03          	sar    $0x3,%rbp
  402aba:	48 83 ec 08          	sub    $0x8,%rsp
  402abe:	e8 05 e1 ff ff       	callq  400bc8 <_init>
  402ac3:	48 85 ed             	test   %rbp,%rbp
  402ac6:	74 1e                	je     402ae6 <__libc_csu_init+0x56>
  402ac8:	0f 1f 84 00 00 00 00 	nopl   0x0(%rax,%rax,1)
  402acf:	00 
  402ad0:	4c 89 ea             	mov    %r13,%rdx
  402ad3:	4c 89 f6             	mov    %r14,%rsi
  402ad6:	44 89 ff             	mov    %r15d,%edi
  402ad9:	41 ff 14 dc          	callq  *(%r12,%rbx,8)
  402add:	48 83 c3 01          	add    $0x1,%rbx
  402ae1:	48 39 eb             	cmp    %rbp,%rbx
  402ae4:	75 ea                	jne    402ad0 <__libc_csu_init+0x40>
  402ae6:	48 83 c4 08          	add    $0x8,%rsp
  402aea:	5b                   	pop    %rbx
  402aeb:	5d                   	pop    %rbp
  402aec:	41 5c                	pop    %r12
  402aee:	41 5d                	pop    %r13
  402af0:	41 5e                	pop    %r14
  402af2:	41 5f                	pop    %r15
  402af4:	c3                   	retq   
  402af5:	90                   	nop
  402af6:	66 2e 0f 1f 84 00 00 	nopw   %cs:0x0(%rax,%rax,1)
  402afd:	00 00 00 

0000000000402b00 <__libc_csu_fini>:
  402b00:	f3 c3                	repz retq 

Disassembly of section .fini:

0000000000402b04 <_fini>:
  402b04:	48 83 ec 08          	sub    $0x8,%rsp
  402b08:	48 83 c4 08          	add    $0x8,%rsp
  402b0c:	c3                   	retq   
